(lp0
(lp1
I1
aI1602
aI4081
aI1094
aI2909
aI1315
aI1604
aI4532
aI143
aI1154
aI5162
aI12153
aI4236
aI5953
aI98
aI1698
aI3214
aI5456
aI6953
aI124
aI197
aI1319
aI404
aI1263
aI1394
aI482
aI0
aI0
aI0
aI15
aI1243
aI2400
aI0
aa(lp2
I1017
aI6
aI55
aI6
aI33
aI2388
aI31
aI61
aI1227
aI0
aI221
aI1382
aI72
aI537
aI3290
aI0
aI1757
aI197
aI4
aI1347
aI0
aI129
aI1
aI11
aI21
aI291
aI156
aI4576
aI53
aI0
aI11
aI749
aI0
aa(lp3
I7646
aI13
aI84
aI6
aI311
aI6381
aI4
aI831
aI4317
aI0
aI445
aI996
aI145
aI1489
aI7816
aI527
aI1098
aI3322
aI368
aI901
aI0
aI99
aI38
aI50
aI765
aI4
aI19
aI4184
aI159
aI0
aI0
aI373
aI0
aa(lp4
I1681
aI2
aI18
aI4
aI1338
aI369
aI0
aI0
aI1019
aI0
aI230
aI1960
aI10
aI594
aI8173
aI0
aI1553
aI28
aI21
aI730
aI0
aI9
aI0
aI75
aI5
aI0
aI0
aI0
aI4
aI1
aI0
aI0
aI0
aa(lp5
I6053
aI56
aI1530
aI36
aI68
aI6381
aI361
aI29
aI3378
aI0
aI378
aI939
aI47
aI2274
aI5437
aI159
aI1220
aI424
aI170
aI2163
aI2
aI80
aI231
aI63
aI44
aI0
aI38
aI838
aI382
aI1
aI32
aI406
aI0
aa(lp6
I106
aI1611
aI1673
aI3563
aI3883
aI1518
aI1037
aI1821
aI112
aI2505
aI1803
aI8086
aI5148
aI10244
aI294
aI1434
aI8958
aI5851
aI6797
aI141
aI35
aI734
aI469
aI1200
aI1247
aI970
aI0
aI0
aI0
aI1
aI212
aI245
aI0
aa(lp7
I1922
aI42
aI0
aI14
aI1016
aI4586
aI25
aI7
aI2059
aI0
aI191
aI20
aI14
aI1326
aI60
aI12
aI8
aI10
aI1
aI419
aI0
aI0
aI0
aI41
aI0
aI0
aI0
aI0
aI98
aI0
aI1
aI0
aI0
aa(lp8
I7886
aI214
aI1118
aI576
aI1281
aI633
aI109
aI28
aI645
aI0
aI244
aI378
aI622
aI2040
aI1076
aI0
aI512
aI10
aI30
aI780
aI0
aI0
aI8
aI16
aI5
aI0
aI9
aI509
aI180
aI0
aI1
aI349
aI0
aa(lp9
I409
aI672
aI2983
aI897
aI1874
aI2732
aI416
aI3150
aI794
aI1339
aI3059
aI7269
aI3463
aI4640
aI347
aI430
aI1456
aI3950
aI5371
aI9
aI90
aI2049
aI1140
aI1497
aI912
aI224
aI0
aI0
aI0
aI2
aI415
aI1827
aI0
aa(lp10
I12
aI49
aI0
aI0
aI303
aI7
aI0
aI6
aI4
aI0
aI153
aI30
aI128
aI448
aI108
aI51
aI9
aI765
aI476
aI0
aI31
aI0
aI41
aI196
aI130
aI2
aI0
aI0
aI0
aI0
aI0
aI10
aI0
aa(lp11
I8892
aI1
aI165
aI0
aI0
aI808
aI25
aI33
aI3672
aI0
aI48
aI1206
aI1
aI764
aI10829
aI2
aI2904
aI214
aI1049
aI2693
aI1
aI0
aI72
aI1
aI11
aI0
aI0
aI1
aI4
aI0
aI3
aI0
aI0
aa(lp12
I7270
aI44
aI27
aI174
aI232
aI6076
aI402
aI51
aI10259
aI0
aI587
aI282
aI25
aI628
aI7898
aI78
aI0
aI3191
aI67
aI1846
aI3
aI0
aI1
aI100
aI1
aI8
aI0
aI1025
aI5876
aI26
aI1395
aI2306
aI0
aa(lp13
I3462
aI118
aI7
aI65
aI0
aI6144
aI0
aI3
aI3407
aI0
aI219
aI184
aI120
aI2823
aI5718
aI248
aI85
aI197
aI3
aI2073
aI12
aI0
aI29
aI70
aI0
aI9
aI0
aI2152
aI59
aI3
aI32
aI615
aI0
aa(lp14
I14995
aI1
aI33
aI163
aI705
aI13388
aI407
aI30
aI9437
aI0
aI527
aI2
aI0
aI3400
aI13856
aI3
aI97
aI608
aI1300
aI5292
aI76
aI1
aI387
aI274
aI2
aI72
aI7
aI4709
aI1341
aI2
aI195
aI3179
aI0
aa(lp15
I20
aI5491
aI8502
aI5591
aI6420
aI2885
aI2645
aI1903
aI1409
aI4867
aI3169
aI8346
aI6574
aI7492
aI430
aI2205
aI7880
aI8457
aI8840
aI134
aI331
aI1044
aI182
aI2406
aI1276
aI413
aI0
aI0
aI0
aI115
aI314
aI1031
aI0
aa(lp16
I2555
aI0
aI0
aI0
aI0
aI3249
aI0
aI0
aI1685
aI0
aI206
aI1676
aI0
aI329
aI14187
aI167
aI9927
aI68
aI144
aI1357
aI0
aI0
aI1
aI20
aI5
aI0
aI0
aI551
aI167
aI0
aI11
aI301
aI0
aa(lp17
I11227
aI87
aI583
aI343
aI234
aI8159
aI633
aI43
aI5869
aI0
aI419
aI122
aI794
aI1533
aI10162
aI218
aI87
aI281
aI1228
aI3912
aI11
aI230
aI65
aI159
aI296
aI28
aI0
aI2223
aI976
aI18
aI186
aI1521
aI0
aa(lp18
I1606
aI114
aI1848
aI35
aI436
aI4320
aI54
aI38
aI1976
aI0
aI4441
aI4103
aI1051
aI1557
aI3549
aI2642
aI446
aI854
aI14957
aI1038
aI52
aI319
aI50
aI493
aI117
aI0
aI37
aI406
aI4801
aI169
aI279
aI6945
aI0
aa(lp19
I8276
aI46
aI2986
aI6
aI199
aI7279
aI7
aI1
aI5269
aI0
aI1163
aI337
aI120
aI1535
aI16203
aI250
aI3953
aI1929
aI86
aI2292
aI28
aI24
aI35
aI159
aI18
aI35
aI10
aI2489
aI8563
aI0
aI164
aI770
aI0
aa(lp20
I84
aI949
aI901
aI1144
aI2447
aI300
aI2034
aI517
aI18
aI133
aI1190
aI3562
aI1414
aI554
aI3
aI1035
aI827
aI2104
aI2577
aI14
aI19
aI606
aI9
aI1427
aI763
aI366
aI0
aI0
aI0
aI4
aI1423
aI81
aI0
aa(lp21
I232
aI0
aI0
aI0
aI1
aI227
aI0
aI0
aI397
aI0
aI0
aI124
aI2
aI1
aI429
aI0
aI139
aI8
aI37
aI136
aI38
aI0
aI0
aI0
aI8
aI0
aI0
aI27
aI4
aI8
aI2
aI2
aI0
aa(lp22
I560
aI1
aI518
aI1
aI1
aI77
aI0
aI1
aI245
aI0
aI5
aI227
aI96
aI602
aI2813
aI0
aI352
aI58
aI71
aI151
aI0
aI0
aI2
aI2
aI7
aI0
aI2
aI0
aI0
aI2
aI0
aI0
aI0
aa(lp23
I592
aI2
aI69
aI0
aI0
aI1219
aI0
aI0
aI965
aI0
aI23
aI0
aI0
aI2
aI222
aI0
aI0
aI2
aI0
aI160
aI0
aI0
aI0
aI0
aI0
aI0
aI0
aI220
aI0
aI0
aI0
aI0
aI0
aa(lp24
I2423
aI0
aI4
aI0
aI0
aI4562
aI0
aI0
aI2267
aI0
aI631
aI21
aI7
aI1316
aI134
aI0
aI19
aI0
aI3852
aI678
aI0
aI1
aI0
aI56
aI250
aI0
aI0
aI0
aI262
aI0
aI0
aI0
aI0
aa(lp25
I1121
aI0
aI63
aI0
aI0
aI2779
aI0
aI0
aI2246
aI0
aI657
aI832
aI45
aI359
aI312
aI60
aI25
aI0
aI174
aI407
aI0
aI0
aI4
aI0
aI0
aI0
aI0
aI0
aI833
aI0
aI6
aI0
aI0
aa(lp26
I564
aI0
aI0
aI0
aI1
aI1879
aI0
aI0
aI1178
aI0
aI1
aI0
aI0
aI84
aI1
aI0
aI5
aI0
aI0
aI186
aI0
aI0
aI0
aI0
aI0
aI0
aI0
aI0
aI82
aI0
aI0
aI0
aI0
aa(lp27
I0
aI0
aI0
aI0
aI0
aI149
aI0
aI0
aI0
aI0
aI0
aI0
aI0
aI0
aI0
aI0
aI0
aI0
aI0
aI0
aI0
aI0
aI0
aI0
aI0
aI0
aI0
aI0
aI0
aI0
aI1
aI128
aI0
aa(lp28
I0
aI412
aI1258
aI238
aI172
aI1604
aI68
aI121
aI14
aI2114
aI305
aI2877
aI1412
aI143
aI0
aI347
aI371
aI1212
aI1054
aI10
aI0
aI1268
aI1
aI278
aI713
aI21
aI0
aI0
aI0
aI0
aI0
aI63
aI0
aa(lp29
I0
aI67
aI3
aI133
aI49
aI361
aI0
aI281
aI50
aI0
aI1617
aI0
aI237
aI1978
aI11
aI1
aI0
aI1677
aI203
aI0
aI23
aI0
aI248
aI51
aI783
aI10
aI0
aI0
aI0
aI0
aI592
aI258
aI0
aa(lp30
I0
aI1
aI1
aI9
aI2
aI0
aI0
aI1
aI0
aI22
aI168
aI141
aI24
aI80
aI0
aI14
aI189
aI39
aI3257
aI0
aI33
aI14
aI0
aI0
aI28
aI0
aI0
aI0
aI0
aI0
aI0
aI0
aI0
aa(lp31
I2
aI289
aI8
aI11
aI501
aI5
aI23
aI45
aI1
aI11
aI80
aI13
aI71
aI54
aI3
aI6
aI110
aI287
aI748
aI0
aI4
aI29
aI4
aI424
aI20
aI570
aI0
aI0
aI0
aI32
aI59
aI0
aI0
aa(lp32
I0
aI8
aI459
aI158
aI829
aI146
aI283
aI388
aI36
aI62
aI293
aI1397
aI456
aI780
aI0
aI46
aI111
aI760
aI1933
aI0
aI0
aI233
aI50
aI152
aI16
aI360
aI0
aI0
aI0
aI0
aI202
aI120
aI0
aa(lp33
I0
aI0
aI0
aI0
aI0
aI0
aI0
aI0
aI0
aI0
aI0
aI0
aI0
aI0
aI0
aI0
aI0
aI0
aI0
aI0
aI0
aI0
aI0
aI0
aI0
aI0
aI0
aI0
aI0
aI0
aI0
aI0
aI0
aa.