(lp0
I93720
aI19900
aI50208
aI18738
aI34834
aI95983
aI12186
aI21636
aI76978
aI12208
aI39207
aI61712
aI37880
aI78383
aI127868
aI36796
aI53264
aI62698
aI72055
aI35357
aI1910
aI9878
aI3900
aI16611
aI10070
aI3988
aI278
aI23910
aI23844
aI4024
aI6828
aI31306
aI0
a.