(lp0
(lp1
(lp2
I0
aI0
aI0
aI0
aI0
aI0
aI0
aI0
aI0
aI0
aI0
aI1
aI0
aI0
aI0
aI0
aI0
aI0
aI0
aI0
aI0
aI0
aI0
aI0
aI0
aI0
aI0
aI0
aI0
aI0
aI0
aI0
aI0
aa(lp3
I88
aI2
aI2
aI0
aI5
aI67
aI17
aI0
aI190
aI0
aI17
aI435
aI0
aI6
aI458
aI0
aI118
aI36
aI0
aI27
aI0
aI0
aI0
aI0
aI0
aI0
aI0
aI118
aI3
aI0
aI0
aI1
aI0
aa(lp4
I618
aI0
aI0
aI1
aI121
aI358
aI0
aI2
aI1131
aI0
aI37
aI480
aI1
aI310
aI158
aI0
aI3
aI44
aI171
aI35
aI0
aI0
aI5
aI8
aI224
aI0
aI0
aI56
aI35
aI0
aI0
aI53
aI0
aa(lp5
I276
aI0
aI1
aI0
aI1
aI64
aI0
aI0
aI95
aI0
aI0
aI61
aI9
aI63
aI316
aI0
aI98
aI0
aI0
aI28
aI0
aI0
aI0
aI0
aI0
aI0
aI0
aI0
aI0
aI0
aI0
aI0
aI0
aa(lp6
I293
aI1
aI15
aI0
aI0
aI412
aI0
aI12
aI363
aI0
aI112
aI24
aI14
aI176
aI711
aI28
aI48
aI12
aI0
aI132
aI0
aI0
aI122
aI2
aI4
aI0
aI0
aI88
aI21
aI0
aI0
aI10
aI0
aa(lp7
I0
aI0
aI7
aI0
aI6
aI0
aI0
aI2
aI0
aI0
aI8
aI3
aI202
aI1
aI0
aI0
aI0
aI0
aI798
aI0
aI0
aI9
aI0
aI0
aI211
aI0
aI0
aI0
aI0
aI0
aI0
aI0
aI0
aa(lp8
I248
aI0
aI0
aI3
aI268
aI577
aI2
aI0
aI161
aI0
aI28
aI0
aI8
aI132
aI13
aI0
aI0
aI0
aI0
aI95
aI0
aI0
aI0
aI0
aI0
aI0
aI0
aI0
aI0
aI0
aI0
aI0
aI0
aa(lp9
I1664
aI112
aI240
aI139
aI232
aI108
aI14
aI1
aI181
aI0
aI20
aI64
aI115
aI182
aI248
aI0
aI120
aI0
aI0
aI368
aI0
aI0
aI7
aI4
aI0
aI0
aI4
aI260
aI3
aI0
aI0
aI1
aI0
aa(lp10
I0
aI14
aI42
aI6
aI0
aI0
aI0
aI1
aI0
aI0
aI0
aI11
aI12
aI41
aI0
aI0
aI0
aI2
aI2
aI0
aI0
aI0
aI0
aI3
aI0
aI0
aI0
aI0
aI0
aI0
aI0
aI0
aI0
aa(lp11
I0
aI0
aI0
aI0
aI81
aI1
aI0
aI1
aI1
aI0
aI23
aI6
aI35
aI155
aI108
aI2
aI0
aI86
aI230
aI0
aI0
aI0
aI0
aI0
aI72
aI0
aI0
aI0
aI0
aI0
aI0
aI9
aI0
aa(lp12
I297
aI1
aI7
aI0
aI0
aI51
aI25
aI0
aI392
aI0
aI30
aI82
aI1
aI2
aI1110
aI0
aI209
aI59
aI252
aI99
aI1
aI0
aI23
aI0
aI0
aI0
aI0
aI0
aI0
aI0
aI0
aI0
aI0
aa(lp13
I1224
aI1
aI0
aI2
aI13
aI496
aI0
aI0
aI2125
aI0
aI85
aI110
aI1
aI0
aI1156
aI11
aI0
aI1137
aI2
aI110
aI2
aI0
aI0
aI3
aI0
aI0
aI0
aI102
aI1197
aI0
aI17
aI68
aI0
aa(lp14
I116
aI34
aI0
aI0
aI0
aI548
aI0
aI0
aI1147
aI0
aI56
aI1
aI52
aI40
aI422
aI44
aI0
aI3
aI0
aI27
aI1
aI0
aI0
aI0
aI0
aI0
aI0
aI178
aI10
aI0
aI0
aI86
aI0
aa(lp15
I302
aI0
aI0
aI44
aI318
aI631
aI370
aI0
aI1278
aI0
aI150
aI0
aI0
aI604
aI484
aI0
aI0
aI164
aI374
aI167
aI0
aI1
aI104
aI35
aI2
aI0
aI0
aI183
aI130
aI0
aI2
aI142
aI0
aa(lp16
I0
aI18
aI0
aI0
aI17
aI0
aI0
aI0
aI0
aI0
aI0
aI0
aI0
aI3
aI0
aI0
aI56
aI3
aI1
aI0
aI0
aI0
aI0
aI0
aI0
aI0
aI0
aI0
aI0
aI0
aI0
aI0
aI0
aa(lp17
I190
aI0
aI0
aI0
aI0
aI104
aI0
aI0
aI328
aI0
aI30
aI61
aI0
aI55
aI340
aI63
aI377
aI12
aI9
aI44
aI0
aI0
aI0
aI3
aI2
aI0
aI0
aI14
aI0
aI0
aI2
aI43
aI0
aa(lp18
I509
aI7
aI21
aI20
aI28
aI207
aI3
aI0
aI343
aI0
aI157
aI31
aI279
aI138
aI245
aI5
aI22
aI60
aI229
aI328
aI0
aI25
aI3
aI9
aI76
aI3
aI0
aI108
aI54
aI0
aI16
aI137
aI0
aa(lp19
I135
aI1
aI20
aI0
aI0
aI112
aI0
aI0
aI203
aI0
aI229
aI126
aI17
aI377
aI136
aI277
aI1
aI577
aI1156
aI22
aI2
aI34
aI6
aI60
aI46
aI0
aI0
aI74
aI855
aI0
aI0
aI4
aI0
aa(lp20
I296
aI0
aI13
aI0
aI0
aI778
aI0
aI0
aI835
aI0
aI140
aI32
aI11
aI139
aI455
aI0
aI183
aI38
aI2
aI160
aI8
aI1
aI5
aI53
aI0
aI0
aI0
aI290
aI3173
aI0
aI5
aI63
aI0
aa(lp21
I0
aI2
aI0
aI7
aI8
aI0
aI0
aI4
aI0
aI1
aI21
aI24
aI0
aI12
aI0
aI1
aI6
aI1
aI16
aI0
aI0
aI0
aI0
aI18
aI3
aI0
aI0
aI0
aI0
aI0
aI0
aI0
aI0
aa(lp22
I51
aI0
aI0
aI0
aI0
aI3
aI0
aI0
aI44
aI0
aI0
aI0
aI0
aI1
aI18
aI0
aI5
aI3
aI2
aI1
aI0
aI0
aI0
aI0
aI0
aI0
aI0
aI1
aI0
aI0
aI0
aI0
aI0
aa(lp23
I51
aI0
aI87
aI0
aI0
aI2
aI0
aI0
aI31
aI0
aI0
aI48
aI31
aI119
aI221
aI0
aI8
aI0
aI17
aI4
aI0
aI0
aI0
aI0
aI1
aI0
aI0
aI0
aI0
aI0
aI0
aI0
aI0
aa(lp24
I4
aI0
aI0
aI0
aI0
aI25
aI0
aI0
aI356
aI0
aI16
aI0
aI0
aI0
aI0
aI0
aI0
aI0
aI0
aI0
aI0
aI0
aI0
aI0
aI0
aI0
aI0
aI0
aI0
aI0
aI0
aI0
aI0
aa(lp25
I415
aI0
aI0
aI0
aI0
aI248
aI0
aI0
aI305
aI0
aI58
aI3
aI0
aI153
aI11
aI0
aI0
aI0
aI4
aI43
aI0
aI0
aI0
aI0
aI0
aI0
aI0
aI0
aI3
aI0
aI0
aI0
aI0
aa(lp26
I98
aI0
aI3
aI0
aI0
aI338
aI0
aI0
aI578
aI0
aI49
aI38
aI21
aI84
aI1
aI4
aI0
aI0
aI2
aI60
aI0
aI0
aI0
aI0
aI0
aI0
aI0
aI0
aI6
aI0
aI4
aI0
aI0
aa(lp27
I150
aI0
aI0
aI0
aI0
aI61
aI0
aI0
aI246
aI0
aI0
aI0
aI0
aI0
aI0
aI0
aI0
aI0
aI0
aI19
aI0
aI0
aI0
aI0
aI0
aI0
aI0
aI0
aI1
aI0
aI0
aI0
aI0
aa(lp28
I0
aI0
aI0
aI0
aI0
aI0
aI0
aI0
aI0
aI0
aI0
aI0
aI0
aI0
aI0
aI0
aI0
aI0
aI0
aI0
aI0
aI0
aI0
aI0
aI0
aI0
aI0
aI0
aI0
aI0
aI0
aI0
aI0
aa(lp29
I0
aI0
aI0
aI0
aI0
aI0
aI0
aI0
aI0
aI0
aI0
aI0
aI0
aI0
aI0
aI0
aI0
aI0
aI0
aI0
aI0
aI0
aI0
aI0
aI0
aI0
aI0
aI0
aI0
aI0
aI0
aI0
aI0
aa(lp30
I0
aI0
aI0
aI0
aI0
aI0
aI0
aI0
aI0
aI0
aI0
aI0
aI0
aI0
aI0
aI0
aI0
aI0
aI0
aI0
aI0
aI0
aI0
aI0
aI0
aI0
aI0
aI0
aI0
aI0
aI0
aI0
aI0
aa(lp31
I0
aI0
aI0
aI0
aI0
aI0
aI0
aI0
aI0
aI0
aI0
aI1
aI0
aI0
aI0
aI0
aI14
aI0
aI0
aI0
aI0
aI0
aI0
aI0
aI0
aI0
aI0
aI0
aI0
aI0
aI0
aI0
aI0
aa(lp32
I0
aI0
aI0
aI0
aI0
aI0
aI0
aI0
aI0
aI0
aI2
aI0
aI0
aI0
aI0
aI0
aI0
aI78
aI405
aI0
aI0
aI0
aI0
aI0
aI1
aI281
aI0
aI0
aI0
aI0
aI0
aI0
aI0
aa(lp33
I0
aI1
aI34
aI0
aI0
aI0
aI0
aI0
aI0
aI0
aI4
aI17
aI4
aI34
aI0
aI0
aI1
aI272
aI2
aI0
aI0
aI6
aI0
aI4
aI0
aI0
aI0
aI0
aI0
aI0
aI0
aI0
aI0
aa(lp34
I0
aI0
aI0
aI0
aI0
aI0
aI0
aI0
aI0
aI0
aI0
aI0
aI0
aI0
aI0
aI0
aI0
aI0
aI0
aI0
aI0
aI0
aI0
aI0
aI0
aI0
aI0
aI0
aI0
aI0
aI0
aI0
aI0
aaa(lp35
(lp36
I0
aI17
aI99
aI34
aI10
aI11
aI0
aI69
aI2
aI4
aI16
aI81
aI66
aI172
aI0
aI0
aI118
aI19
aI46
aI1
aI0
aI25
aI1
aI8
aI72
aI0
aI0
aI0
aI0
aI0
aI6
aI24
aI0
aa(lp37
I0
aI0
aI0
aI0
aI0
aI0
aI0
aI0
aI2
aI0
aI0
aI0
aI0
aI0
aI2
aI0
aI0
aI0
aI0
aI0
aI0
aI0
aI0
aI0
aI0
aI0
aI0
aI0
aI0
aI0
aI0
aI0
aI0
aa(lp38
I3
aI0
aI0
aI0
aI0
aI14
aI0
aI0
aI32
aI0
aI0
aI0
aI0
aI0
aI5
aI0
aI0
aI0
aI0
aI0
aI0
aI0
aI0
aI0
aI0
aI0
aI0
aI0
aI0
aI0
aI0
aI1
aI0
aa(lp39
I0
aI0
aI0
aI0
aI0
aI0
aI0
aI0
aI0
aI0
aI0
aI0
aI0
aI0
aI6
aI0
aI0
aI0
aI0
aI0
aI0
aI0
aI0
aI0
aI0
aI0
aI0
aI0
aI0
aI0
aI0
aI0
aI0
aa(lp40
I1
aI0
aI0
aI0
aI0
aI2
aI0
aI0
aI13
aI0
aI0
aI0
aI0
aI0
aI0
aI0
aI0
aI0
aI0
aI17
aI0
aI0
aI0
aI0
aI0
aI0
aI0
aI0
aI0
aI0
aI0
aI0
aI0
aa(lp41
I0
aI0
aI8
aI127
aI203
aI2
aI214
aI486
aI11
aI6
aI0
aI114
aI0
aI76
aI0
aI0
aI271
aI263
aI40
aI0
aI0
aI0
aI0
aI3
aI14
aI50
aI0
aI0
aI0
aI0
aI1
aI1
aI0
aa(lp42
I7
aI0
aI0
aI0
aI0
aI18
aI0
aI0
aI2
aI0
aI0
aI0
aI0
aI0
aI4
aI0
aI0
aI0
aI0
aI0
aI0
aI0
aI0
aI0
aI0
aI0
aI0
aI0
aI0
aI0
aI0
aI0
aI0
aa(lp43
I2
aI0
aI0
aI0
aI0
aI0
aI0
aI0
aI0
aI0
aI0
aI0
aI0
aI0
aI3
aI0
aI0
aI0
aI0
aI0
aI0
aI0
aI0
aI0
aI0
aI0
aI0
aI0
aI0
aI0
aI0
aI0
aI0
aa(lp44
I0
aI67
aI102
aI0
aI23
aI8
aI1
aI10
aI0
aI73
aI7
aI260
aI12
aI136
aI7
aI0
aI202
aI2
aI250
aI0
aI8
aI0
aI9
aI0
aI11
aI1
aI0
aI0
aI0
aI0
aI0
aI2
aI0
aa(lp45
I0
aI0
aI0
aI0
aI0
aI0
aI0
aI0
aI0
aI0
aI0
aI0
aI0
aI0
aI0
aI0
aI0
aI0
aI0
aI0
aI0
aI0
aI0
aI0
aI0
aI0
aI0
aI0
aI0
aI0
aI0
aI0
aI0
aa(lp46
I69
aI0
aI0
aI0
aI0
aI17
aI0
aI0
aI29
aI0
aI0
aI2
aI0
aI0
aI34
aI0
aI0
aI0
aI0
aI70
aI0
aI0
aI0
aI0
aI0
aI0
aI0
aI0
aI0
aI0
aI0
aI0
aI0
aa(lp47
I242
aI0
aI0
aI0
aI0
aI330
aI0
aI0
aI372
aI0
aI1
aI0
aI0
aI0
aI78
aI0
aI0
aI0
aI1
aI28
aI0
aI0
aI0
aI0
aI0
aI0
aI0
aI1
aI104
aI0
aI111
aI107
aI0
aa(lp48
I19
aI0
aI0
aI0
aI0
aI26
aI0
aI0
aI0
aI0
aI0
aI0
aI0
aI0
aI15
aI0
aI0
aI0
aI0
aI2
aI0
aI0
aI0
aI0
aI0
aI0
aI0
aI0
aI0
aI0
aI0
aI9
aI0
aa(lp49
I124
aI0
aI0
aI0
aI0
aI26
aI0
aI0
aI27
aI0
aI0
aI0
aI0
aI0
aI139
aI0
aI0
aI0
aI0
aI109
aI0
aI0
aI0
aI0
aI0
aI0
aI0
aI99
aI0
aI0
aI0
aI13
aI0
aa(lp50
I0
aI2
aI117
aI106
aI156
aI83
aI33
aI10
aI20
aI289
aI155
aI872
aI94
aI23
aI0
aI32
aI426
aI20
aI520
aI0
aI0
aI0
aI0
aI64
aI16
aI1
aI0
aI0
aI0
aI0
aI25
aI43
aI0
aa(lp51
I0
aI0
aI0
aI0
aI0
aI0
aI0
aI0
aI0
aI0
aI0
aI0
aI0
aI0
aI0
aI0
aI0
aI0
aI0
aI0
aI0
aI0
aI0
aI0
aI0
aI0
aI0
aI0
aI0
aI0
aI0
aI0
aI0
aa(lp52
I1032
aI0
aI0
aI0
aI0
aI122
aI0
aI0
aI59
aI0
aI0
aI0
aI0
aI0
aI399
aI0
aI0
aI0
aI0
aI23
aI0
aI0
aI0
aI0
aI0
aI0
aI0
aI70
aI0
aI0
aI27
aI20
aI0
aa(lp53
I0
aI0
aI0
aI0
aI0
aI0
aI0
aI0
aI2
aI0
aI2
aI14
aI0
aI0
aI24
aI0
aI0
aI0
aI131
aI14
aI0
aI0
aI0
aI4
aI0
aI0
aI0
aI0
aI0
aI0
aI0
aI6
aI0
aa(lp54
I1
aI0
aI0
aI0
aI0
aI0
aI0
aI0
aI2
aI0
aI0
aI0
aI0
aI0
aI0
aI0
aI0
aI0
aI0
aI0
aI0
aI0
aI0
aI0
aI0
aI0
aI0
aI0
aI0
aI0
aI0
aI1
aI0
aa(lp55
I0
aI11
aI3
aI2
aI752
aI39
aI11
aI1
aI0
aI3
aI30
aI19
aI87
aI5
aI0
aI0
aI131
aI8
aI74
aI0
aI2
aI17
aI0
aI18
aI4
aI1
aI0
aI0
aI0
aI0
aI32
aI7
aI0
aa(lp56
I0
aI0
aI0
aI0
aI0
aI0
aI0
aI0
aI0
aI0
aI0
aI0
aI0
aI0
aI0
aI0
aI0
aI0
aI0
aI0
aI0
aI0
aI0
aI0
aI0
aI0
aI0
aI0
aI0
aI0
aI0
aI0
aI0
aa(lp57
I0
aI0
aI4
aI0
aI0
aI0
aI0
aI0
aI0
aI0
aI0
aI0
aI0
aI0
aI125
aI0
aI0
aI0
aI0
aI0
aI0
aI0
aI0
aI0
aI0
aI0
aI0
aI0
aI0
aI0
aI0
aI0
aI0
aa(lp58
I0
aI0
aI0
aI0
aI0
aI0
aI0
aI0
aI0
aI0
aI0
aI0
aI0
aI0
aI0
aI0
aI0
aI0
aI0
aI0
aI0
aI0
aI0
aI0
aI0
aI0
aI0
aI1
aI0
aI0
aI0
aI0
aI0
aa(lp59
I1
aI0
aI0
aI0
aI0
aI0
aI0
aI0
aI9
aI0
aI0
aI0
aI0
aI0
aI1
aI0
aI0
aI0
aI0
aI0
aI0
aI0
aI0
aI0
aI0
aI0
aI0
aI0
aI0
aI0
aI0
aI0
aI0
aa(lp60
I10
aI0
aI0
aI0
aI0
aI1
aI0
aI0
aI9
aI0
aI0
aI1
aI0
aI0
aI0
aI0
aI0
aI0
aI0
aI0
aI0
aI0
aI0
aI0
aI0
aI0
aI0
aI0
aI0
aI0
aI0
aI0
aI0
aa(lp61
I22
aI0
aI0
aI0
aI0
aI196
aI0
aI0
aI64
aI0
aI0
aI0
aI0
aI6
aI0
aI0
aI0
aI0
aI0
aI3
aI0
aI0
aI0
aI0
aI0
aI0
aI0
aI0
aI0
aI0
aI0
aI0
aI0
aa(lp62
I0
aI0
aI0
aI0
aI0
aI40
aI0
aI0
aI0
aI0
aI0
aI0
aI0
aI0
aI0
aI0
aI0
aI0
aI0
aI0
aI0
aI0
aI0
aI0
aI0
aI0
aI0
aI0
aI0
aI0
aI0
aI116
aI0
aa(lp63
I0
aI0
aI110
aI0
aI0
aI18
aI0
aI0
aI0
aI12
aI9
aI2187
aI16
aI0
aI0
aI0
aI0
aI314
aI288
aI0
aI0
aI10
aI0
aI94
aI1
aI6
aI0
aI0
aI0
aI0
aI0
aI0
aI0
aa(lp64
I0
aI0
aI0
aI0
aI0
aI23
aI0
aI0
aI0
aI0
aI0
aI0
aI0
aI0
aI0
aI0
aI0
aI1
aI0
aI0
aI0
aI0
aI0
aI0
aI0
aI0
aI0
aI0
aI0
aI0
aI21
aI5
aI0
aa(lp65
I0
aI0
aI0
aI0
aI0
aI0
aI0
aI0
aI0
aI0
aI0
aI0
aI0
aI0
aI0
aI0
aI0
aI0
aI0
aI0
aI0
aI0
aI0
aI0
aI0
aI0
aI0
aI0
aI0
aI0
aI0
aI0
aI0
aa(lp66
I0
aI0
aI0
aI0
aI1
aI0
aI0
aI0
aI0
aI0
aI0
aI4
aI0
aI0
aI0
aI0
aI5
aI0
aI1
aI0
aI0
aI0
aI0
aI0
aI0
aI0
aI0
aI0
aI0
aI0
aI0
aI0
aI0
aa(lp67
I0
aI0
aI0
aI0
aI0
aI0
aI0
aI48
aI0
aI0
aI0
aI0
aI0
aI0
aI0
aI0
aI0
aI0
aI76
aI0
aI0
aI0
aI0
aI0
aI0
aI1
aI0
aI0
aI0
aI0
aI0
aI0
aI0
aa(lp68
I0
aI0
aI0
aI0
aI0
aI0
aI0
aI0
aI0
aI0
aI0
aI0
aI0
aI0
aI0
aI0
aI0
aI0
aI0
aI0
aI0
aI0
aI0
aI0
aI0
aI0
aI0
aI0
aI0
aI0
aI0
aI0
aI0
aaa(lp69
(lp70
I0
aI0
aI61
aI10
aI58
aI244
aI99
aI0
aI6
aI179
aI8
aI2000
aI359
aI511
aI0
aI0
aI247
aI350
aI1401
aI0
aI0
aI37
aI1
aI30
aI237
aI0
aI0
aI0
aI0
aI0
aI224
aI434
aI0
aa(lp71
I0
aI0
aI0
aI0
aI0
aI2
aI0
aI0
aI5
aI0
aI2
aI3
aI1
aI0
aI0
aI0
aI0
aI0
aI0
aI0
aI0
aI0
aI0
aI0
aI0
aI0
aI0
aI0
aI0
aI0
aI0
aI0
aI0
aa(lp72
I9
aI0
aI0
aI0
aI0
aI67
aI0
aI0
aI1
aI0
aI0
aI0
aI0
aI0
aI6
aI0
aI0
aI0
aI0
aI0
aI0
aI0
aI0
aI0
aI0
aI0
aI0
aI1
aI0
aI0
aI0
aI0
aI0
aa(lp73
I0
aI0
aI0
aI0
aI0
aI0
aI0
aI0
aI0
aI0
aI0
aI5
aI0
aI0
aI0
aI0
aI0
aI0
aI0
aI1
aI0
aI0
aI0
aI0
aI0
aI0
aI0
aI0
aI0
aI0
aI0
aI0
aI0
aa(lp74
I108
aI0
aI17
aI0
aI0
aI9
aI0
aI0
aI5
aI0
aI0
aI0
aI0
aI0
aI77
aI0
aI67
aI0
aI0
aI19
aI0
aI0
aI0
aI0
aI0
aI0
aI0
aI9
aI0
aI0
aI0
aI0
aI0
aa(lp75
I0
aI0
aI8
aI2
aI383
aI10
aI57
aI129
aI0
aI22
aI319
aI486
aI8
aI655
aI0
aI0
aI2358
aI526
aI763
aI0
aI0
aI1
aI8
aI183
aI26
aI142
aI0
aI0
aI0
aI0
aI7
aI7
aI0
aa(lp76
I1
aI0
aI0
aI0
aI0
aI0
aI0
aI0
aI3
aI0
aI0
aI0
aI0
aI0
aI0
aI0
aI0
aI0
aI0
aI0
aI0
aI0
aI0
aI0
aI0
aI0
aI0
aI0
aI0
aI0
aI0
aI0
aI0
aa(lp77
I13
aI18
aI51
aI211
aI118
aI0
aI0
aI0
aI6
aI0
aI0
aI32
aI21
aI7
aI60
aI0
aI98
aI0
aI0
aI0
aI0
aI0
aI0
aI0
aI0
aI0
aI1
aI3
aI0
aI0
aI0
aI192
aI0
aa(lp78
I7
aI3
aI84
aI123
aI904
aI146
aI124
aI116
aI26
aI25
aI73
aI1096
aI41
aI479
aI0
aI0
aI29
aI208
aI590
aI0
aI0
aI4
aI18
aI19
aI25
aI14
aI0
aI0
aI0
aI0
aI9
aI99
aI0
aa(lp79
I0
aI0
aI0
aI0
aI0
aI0
aI0
aI0
aI0
aI0
aI0
aI0
aI0
aI0
aI0
aI0
aI0
aI0
aI0
aI0
aI0
aI0
aI0
aI0
aI0
aI0
aI0
aI0
aI0
aI0
aI0
aI0
aI0
aa(lp80
I70
aI0
aI0
aI0
aI0
aI20
aI0
aI0
aI52
aI0
aI0
aI108
aI0
aI21
aI54
aI0
aI7
aI0
aI0
aI113
aI0
aI0
aI0
aI0
aI0
aI0
aI0
aI0
aI0
aI0
aI0
aI0
aI0
aa(lp81
I88
aI0
aI0
aI0
aI0
aI518
aI0
aI0
aI52
aI0
aI0
aI0
aI0
aI0
aI15
aI0
aI0
aI0
aI0
aI0
aI0
aI0
aI0
aI0
aI0
aI0
aI0
aI0
aI0
aI0
aI35
aI288
aI0
aa(lp82
I1
aI0
aI0
aI0
aI0
aI134
aI0
aI0
aI0
aI0
aI0
aI0
aI0
aI0
aI5
aI0
aI0
aI2
aI0
aI1
aI0
aI0
aI0
aI0
aI0
aI0
aI0
aI1
aI0
aI0
aI0
aI1
aI0
aa(lp83
I32
aI0
aI0
aI0
aI0
aI148
aI0
aI0
aI420
aI0
aI0
aI0
aI0
aI0
aI490
aI0
aI0
aI0
aI0
aI225
aI0
aI0
aI0
aI0
aI0
aI0
aI0
aI143
aI0
aI0
aI10
aI21
aI0
aa(lp84
I0
aI136
aI343
aI124
aI448
aI700
aI48
aI835
aI348
aI614
aI115
aI626
aI155
aI89
aI124
aI229
aI986
aI297
aI434
aI0
aI1
aI1
aI6
aI29
aI59
aI6
aI0
aI0
aI0
aI0
aI152
aI46
aI0
aa(lp85
I14
aI0
aI0
aI0
aI0
aI286
aI0
aI0
aI17
aI0
aI0
aI3
aI0
aI0
aI104
aI0
aI92
aI0
aI0
aI10
aI0
aI0
aI0
aI0
aI0
aI0
aI0
aI0
aI0
aI0
aI0
aI1
aI0
aa(lp86
I274
aI0
aI0
aI0
aI0
aI705
aI0
aI0
aI5
aI0
aI0
aI0
aI0
aI0
aI56
aI0
aI0
aI0
aI0
aI12
aI0
aI0
aI0
aI0
aI0
aI0
aI0
aI2
aI0
aI0
aI0
aI40
aI0
aa(lp87
I3
aI0
aI0
aI0
aI0
aI2096
aI0
aI0
aI0
aI0
aI202
aI53
aI1
aI0
aI1
aI132
aI0
aI0
aI541
aI3
aI0
aI1
aI0
aI0
aI0
aI0
aI0
aI2
aI0
aI0
aI106
aI181
aI0
aa(lp88
I10
aI0
aI0
aI0
aI0
aI0
aI0
aI0
aI2
aI0
aI0
aI0
aI0
aI0
aI277
aI0
aI69
aI0
aI0
aI0
aI0
aI0
aI0
aI0
aI0
aI0
aI0
aI1
aI0
aI0
aI0
aI6
aI0
aa(lp89
I2
aI0
aI0
aI0
aI1
aI66
aI0
aI0
aI0
aI4
aI64
aI20
aI24
aI0
aI1
aI0
aI1
aI2
aI57
aI0
aI0
aI47
aI0
aI52
aI97
aI8
aI0
aI0
aI0
aI0
aI202
aI19
aI0
aa(lp90
I0
aI0
aI0
aI0
aI0
aI0
aI0
aI0
aI0
aI0
aI0
aI0
aI0
aI0
aI0
aI0
aI0
aI0
aI0
aI0
aI0
aI0
aI0
aI0
aI0
aI0
aI0
aI0
aI0
aI0
aI0
aI0
aI0
aa(lp91
I0
aI0
aI0
aI0
aI0
aI0
aI0
aI0
aI0
aI0
aI0
aI0
aI0
aI0
aI99
aI0
aI0
aI0
aI0
aI0
aI0
aI0
aI0
aI0
aI0
aI0
aI0
aI0
aI0
aI0
aI0
aI0
aI0
aa(lp92
I5
aI0
aI0
aI0
aI0
aI22
aI0
aI0
aI0
aI0
aI0
aI0
aI0
aI0
aI2
aI0
aI0
aI0
aI0
aI3
aI0
aI0
aI0
aI0
aI0
aI0
aI0
aI6
aI0
aI0
aI0
aI0
aI0
aa(lp93
I10
aI0
aI0
aI0
aI0
aI14
aI0
aI0
aI15
aI0
aI0
aI0
aI0
aI0
aI11
aI0
aI0
aI0
aI0
aI0
aI0
aI0
aI0
aI0
aI0
aI0
aI0
aI0
aI0
aI0
aI0
aI0
aI0
aa(lp94
I20
aI0
aI0
aI0
aI0
aI148
aI0
aI0
aI559
aI0
aI0
aI0
aI0
aI0
aI0
aI0
aI0
aI0
aI0
aI36
aI0
aI0
aI0
aI0
aI0
aI0
aI0
aI0
aI0
aI0
aI0
aI0
aI0
aa(lp95
I0
aI0
aI0
aI0
aI0
aI0
aI0
aI0
aI4
aI0
aI0
aI0
aI0
aI0
aI0
aI0
aI0
aI0
aI0
aI0
aI0
aI0
aI0
aI0
aI0
aI0
aI0
aI0
aI0
aI0
aI0
aI0
aI0
aa(lp96
I0
aI0
aI0
aI0
aI0
aI19
aI0
aI0
aI0
aI0
aI0
aI0
aI0
aI0
aI0
aI0
aI0
aI0
aI0
aI0
aI0
aI0
aI0
aI0
aI0
aI0
aI0
aI0
aI0
aI0
aI0
aI0
aI0
aa(lp97
I0
aI214
aI130
aI130
aI150
aI241
aI32
aI80
aI14
aI234
aI137
aI111
aI171
aI71
aI0
aI271
aI188
aI412
aI148
aI10
aI0
aI257
aI1
aI63
aI214
aI0
aI0
aI0
aI0
aI0
aI0
aI63
aI0
aa(lp98
I0
aI0
aI0
aI0
aI0
aI24
aI0
aI0
aI1
aI0
aI0
aI0
aI0
aI0
aI0
aI0
aI0
aI2
aI20
aI0
aI0
aI0
aI0
aI0
aI0
aI0
aI0
aI0
aI0
aI0
aI20
aI21
aI0
aa(lp99
I0
aI0
aI0
aI0
aI0
aI0
aI0
aI0
aI0
aI0
aI0
aI0
aI0
aI0
aI0
aI0
aI0
aI0
aI0
aI0
aI0
aI0
aI0
aI0
aI0
aI0
aI0
aI0
aI0
aI0
aI0
aI0
aI0
aa(lp100
I0
aI0
aI0
aI0
aI0
aI0
aI0
aI0
aI0
aI0
aI0
aI0
aI0
aI0
aI0
aI0
aI0
aI0
aI0
aI0
aI0
aI0
aI0
aI0
aI0
aI0
aI0
aI0
aI0
aI0
aI0
aI0
aI0
aa(lp101
I0
aI0
aI0
aI0
aI1
aI0
aI14
aI181
aI0
aI0
aI17
aI11
aI1
aI46
aI0
aI0
aI0
aI4
aI84
aI0
aI0
aI1
aI0
aI0
aI0
aI5
aI0
aI0
aI0
aI0
aI0
aI0
aI0
aa(lp102
I0
aI0
aI0
aI0
aI0
aI0
aI0
aI0
aI0
aI0
aI0
aI0
aI0
aI0
aI0
aI0
aI0
aI0
aI0
aI0
aI0
aI0
aI0
aI0
aI0
aI0
aI0
aI0
aI0
aI0
aI0
aI0
aI0
aaa(lp103
(lp104
I0
aI0
aI14
aI0
aI69
aI32
aI27
aI132
aI0
aI22
aI0
aI331
aI117
aI124
aI0
aI0
aI142
aI49
aI179
aI4
aI4
aI36
aI5
aI9
aI3
aI1
aI0
aI0
aI0
aI0
aI61
aI66
aI0
aa(lp105
I1
aI0
aI0
aI0
aI0
aI1
aI0
aI0
aI0
aI0
aI0
aI0
aI0
aI0
aI0
aI0
aI0
aI0
aI0
aI0
aI0
aI0
aI0
aI0
aI0
aI0
aI0
aI0
aI0
aI0
aI0
aI0
aI0
aa(lp106
I8
aI0
aI0
aI0
aI0
aI0
aI0
aI0
aI5
aI0
aI0
aI2
aI0
aI0
aI3
aI0
aI0
aI0
aI0
aI0
aI0
aI0
aI0
aI0
aI0
aI0
aI0
aI0
aI0
aI0
aI0
aI0
aI0
aa(lp107
I0
aI0
aI0
aI0
aI0
aI3
aI0
aI0
aI0
aI0
aI0
aI0
aI0
aI0
aI0
aI0
aI0
aI0
aI0
aI0
aI0
aI0
aI0
aI0
aI0
aI0
aI0
aI0
aI0
aI0
aI0
aI0
aI0
aa(lp108
I1046
aI0
aI0
aI0
aI0
aI291
aI0
aI0
aI0
aI0
aI0
aI0
aI0
aI0
aI1
aI0
aI0
aI0
aI0
aI0
aI0
aI0
aI0
aI0
aI0
aI0
aI0
aI0
aI0
aI0
aI0
aI0
aI0
aa(lp109
I0
aI0
aI0
aI0
aI3
aI0
aI0
aI0
aI0
aI7
aI0
aI11
aI1
aI190
aI4
aI0
aI34
aI0
aI7
aI0
aI0
aI0
aI0
aI0
aI0
aI0
aI0
aI0
aI0
aI0
aI0
aI2
aI0
aa(lp110
I0
aI0
aI0
aI0
aI0
aI0
aI0
aI0
aI0
aI0
aI0
aI0
aI0
aI0
aI0
aI0
aI0
aI0
aI0
aI0
aI0
aI0
aI0
aI0
aI0
aI0
aI0
aI0
aI0
aI0
aI0
aI0
aI0
aa(lp111
I0
aI0
aI0
aI0
aI0
aI0
aI0
aI0
aI0
aI0
aI0
aI0
aI0
aI0
aI0
aI0
aI0
aI0
aI0
aI0
aI0
aI0
aI0
aI0
aI0
aI0
aI0
aI0
aI0
aI0
aI0
aI0
aI0
aa(lp112
I0
aI60
aI64
aI18
aI0
aI95
aI0
aI2
aI37
aI11
aI19
aI14
aI40
aI13
aI6
aI12
aI4
aI16
aI5
aI0
aI0
aI65
aI1
aI42
aI0
aI0
aI0
aI0
aI0
aI0
aI9
aI10
aI0
aa(lp113
I0
aI0
aI0
aI0
aI0
aI0
aI0
aI0
aI0
aI0
aI0
aI0
aI0
aI0
aI0
aI0
aI0
aI0
aI0
aI0
aI0
aI0
aI0
aI0
aI0
aI0
aI0
aI0
aI0
aI0
aI0
aI0
aI0
aa(lp114
I62
aI0
aI0
aI0
aI0
aI0
aI0
aI0
aI41
aI0
aI0
aI0
aI0
aI0
aI127
aI0
aI0
aI0
aI0
aI0
aI0
aI0
aI0
aI0
aI0
aI0
aI0
aI0
aI0
aI0
aI0
aI0
aI0
aa(lp115
I846
aI0
aI0
aI0
aI0
aI18
aI0
aI0
aI135
aI0
aI0
aI0
aI0
aI0
aI114
aI0
aI0
aI0
aI0
aI219
aI0
aI0
aI0
aI0
aI0
aI0
aI0
aI31
aI2
aI0
aI0
aI587
aI0
aa(lp116
I3
aI0
aI0
aI0
aI0
aI2
aI0
aI0
aI0
aI0
aI0
aI0
aI0
aI0
aI1
aI0
aI0
aI0
aI0
aI3
aI0
aI0
aI0
aI0
aI0
aI0
aI0
aI1
aI0
aI0
aI0
aI0
aI0
aa(lp117
I153
aI0
aI0
aI0
aI0
aI48
aI0
aI0
aI40
aI0
aI0
aI0
aI0
aI0
aI71
aI0
aI0
aI0
aI0
aI272
aI0
aI0
aI0
aI0
aI0
aI0
aI0
aI0
aI0
aI2
aI0
aI8
aI0
aa(lp118
I0
aI1
aI610
aI38
aI352
aI58
aI4
aI1
aI10
aI132
aI1
aI763
aI136
aI231
aI3
aI8
aI519
aI120
aI247
aI23
aI1
aI0
aI9
aI9
aI3
aI6
aI0
aI0
aI0
aI1
aI0
aI0
aI0
aa(lp119
I0
aI0
aI0
aI0
aI0
aI0
aI0
aI0
aI0
aI0
aI0
aI0
aI0
aI0
aI0
aI0
aI0
aI0
aI0
aI0
aI0
aI0
aI0
aI0
aI0
aI0
aI0
aI0
aI0
aI0
aI0
aI0
aI0
aa(lp120
I477
aI19
aI0
aI0
aI0
aI84
aI0
aI0
aI116
aI0
aI0
aI0
aI0
aI0
aI375
aI0
aI1
aI0
aI0
aI351
aI0
aI0
aI0
aI0
aI0
aI0
aI0
aI45
aI0
aI1
aI14
aI69
aI0
aa(lp121
I0
aI0
aI0
aI0
aI0
aI0
aI0
aI0
aI0
aI0
aI1
aI0
aI0
aI0
aI0
aI0
aI0
aI0
aI7
aI0
aI0
aI0
aI0
aI0
aI2
aI0
aI0
aI0
aI0
aI0
aI0
aI16
aI0
aa(lp122
I0
aI0
aI0
aI0
aI0
aI7
aI0
aI0
aI10
aI0
aI0
aI0
aI0
aI0
aI0
aI0
aI0
aI0
aI0
aI0
aI0
aI0
aI0
aI0
aI0
aI0
aI0
aI0
aI0
aI0
aI0
aI4
aI0
aa(lp123
I0
aI66
aI0
aI0
aI20
aI0
aI0
aI0
aI0
aI0
aI0
aI59
aI7
aI3
aI0
aI0
aI46
aI28
aI64
aI0
aI0
aI0
aI0
aI8
aI3
aI4
aI0
aI0
aI0
aI0
aI28
aI0
aI0
aa(lp124
I0
aI0
aI0
aI0
aI0
aI0
aI0
aI0
aI0
aI0
aI0
aI0
aI0
aI0
aI0
aI0
aI0
aI0
aI0
aI0
aI0
aI0
aI0
aI0
aI0
aI0
aI0
aI0
aI0
aI0
aI0
aI0
aI0
aa(lp125
I9
aI0
aI0
aI0
aI0
aI0
aI0
aI0
aI0
aI0
aI0
aI0
aI0
aI0
aI0
aI0
aI0
aI0
aI0
aI0
aI0
aI0
aI0
aI0
aI0
aI0
aI0
aI0
aI0
aI0
aI0
aI0
aI0
aa(lp126
I0
aI0
aI0
aI0
aI0
aI0
aI0
aI0
aI0
aI0
aI0
aI0
aI0
aI0
aI0
aI0
aI0
aI0
aI0
aI0
aI0
aI0
aI0
aI0
aI0
aI0
aI0
aI0
aI0
aI0
aI0
aI0
aI0
aa(lp127
I14
aI0
aI0
aI0
aI0
aI56
aI0
aI0
aI5
aI0
aI0
aI0
aI0
aI0
aI0
aI0
aI0
aI0
aI0
aI0
aI0
aI0
aI0
aI0
aI0
aI0
aI0
aI0
aI0
aI0
aI0
aI0
aI0
aa(lp128
I0
aI0
aI0
aI0
aI0
aI0
aI0
aI0
aI5
aI0
aI0
aI0
aI0
aI0
aI0
aI0
aI0
aI0
aI0
aI0
aI0
aI0
aI0
aI0
aI0
aI0
aI0
aI0
aI0
aI0
aI0
aI0
aI0
aa(lp129
I0
aI0
aI0
aI0
aI0
aI0
aI0
aI0
aI0
aI0
aI0
aI0
aI0
aI0
aI0
aI0
aI0
aI0
aI0
aI0
aI0
aI0
aI0
aI0
aI0
aI0
aI0
aI0
aI0
aI0
aI0
aI0
aI0
aa(lp130
I0
aI0
aI0
aI0
aI0
aI0
aI0
aI0
aI0
aI0
aI0
aI0
aI0
aI0
aI0
aI0
aI0
aI0
aI0
aI0
aI0
aI0
aI0
aI0
aI0
aI0
aI0
aI0
aI0
aI0
aI0
aI0
aI0
aa(lp131
I0
aI0
aI0
aI0
aI0
aI0
aI0
aI0
aI0
aI0
aI0
aI0
aI0
aI0
aI0
aI0
aI0
aI0
aI0
aI0
aI0
aI0
aI0
aI0
aI0
aI0
aI0
aI0
aI0
aI0
aI0
aI0
aI0
aa(lp132
I0
aI0
aI0
aI0
aI0
aI0
aI0
aI0
aI0
aI0
aI0
aI0
aI0
aI0
aI0
aI0
aI0
aI0
aI0
aI0
aI0
aI0
aI0
aI0
aI0
aI0
aI0
aI0
aI0
aI0
aI4
aI0
aI0
aa(lp133
I0
aI0
aI0
aI0
aI0
aI0
aI0
aI0
aI0
aI0
aI0
aI0
aI1
aI0
aI0
aI0
aI0
aI0
aI0
aI0
aI0
aI0
aI0
aI0
aI0
aI0
aI0
aI0
aI0
aI0
aI0
aI0
aI0
aa(lp134
I0
aI0
aI0
aI0
aI0
aI0
aI0
aI0
aI0
aI0
aI0
aI0
aI0
aI0
aI0
aI0
aI0
aI0
aI0
aI0
aI0
aI0
aI0
aI0
aI0
aI0
aI0
aI0
aI0
aI0
aI0
aI0
aI0
aa(lp135
I0
aI0
aI0
aI0
aI0
aI0
aI0
aI0
aI0
aI0
aI0
aI0
aI0
aI0
aI0
aI0
aI0
aI0
aI0
aI0
aI0
aI0
aI0
aI0
aI0
aI0
aI0
aI0
aI0
aI0
aI0
aI0
aI0
aa(lp136
I0
aI0
aI0
aI0
aI0
aI0
aI0
aI0
aI0
aI0
aI0
aI0
aI0
aI0
aI0
aI0
aI0
aI0
aI0
aI0
aI0
aI0
aI0
aI0
aI0
aI0
aI0
aI0
aI0
aI0
aI0
aI0
aI0
aaa(lp137
(lp138
I0
aI7
aI388
aI1
aI29
aI95
aI240
aI0
aI0
aI38
aI9
aI1053
aI99
aI348
aI0
aI1
aI254
aI46
aI527
aI0
aI1
aI16
aI1
aI107
aI16
aI0
aI0
aI0
aI0
aI0
aI87
aI61
aI0
aa(lp139
I0
aI0
aI0
aI0
aI0
aI17
aI0
aI0
aI7
aI0
aI0
aI0
aI0
aI0
aI20
aI0
aI12
aI0
aI0
aI0
aI0
aI0
aI0
aI0
aI0
aI0
aI0
aI0
aI0
aI0
aI0
aI0
aI0
aa(lp140
I304
aI0
aI0
aI0
aI0
aI651
aI0
aI1
aI304
aI0
aI2
aI0
aI0
aI0
aI191
aI0
aI0
aI0
aI0
aI74
aI0
aI0
aI0
aI0
aI0
aI0
aI0
aI3
aI0
aI0
aI0
aI0
aI0
aa(lp141
I1
aI0
aI0
aI0
aI0
aI0
aI0
aI0
aI0
aI0
aI0
aI1
aI0
aI0
aI33
aI0
aI0
aI0
aI0
aI1
aI0
aI0
aI0
aI0
aI0
aI0
aI0
aI0
aI0
aI0
aI0
aI0
aI0
aa(lp142
I18
aI0
aI0
aI0
aI0
aI48
aI0
aI0
aI2
aI0
aI0
aI0
aI0
aI0
aI0
aI0
aI0
aI0
aI0
aI0
aI0
aI0
aI0
aI0
aI0
aI0
aI0
aI0
aI0
aI0
aI0
aI0
aI0
aa(lp143
I15
aI18
aI237
aI2
aI2
aI8
aI183
aI29
aI7
aI312
aI10
aI1794
aI175
aI698
aI16
aI14
aI585
aI415
aI894
aI0
aI2
aI0
aI8
aI4
aI96
aI0
aI0
aI0
aI0
aI0
aI76
aI152
aI0
aa(lp144
I24
aI0
aI0
aI0
aI0
aI91
aI0
aI0
aI223
aI0
aI0
aI0
aI0
aI0
aI6
aI0
aI0
aI0
aI0
aI8
aI0
aI0
aI0
aI0
aI0
aI0
aI0
aI0
aI0
aI0
aI0
aI0
aI0
aa(lp145
I6
aI0
aI0
aI0
aI0
aI5
aI0
aI0
aI9
aI0
aI0
aI0
aI0
aI1
aI3
aI0
aI0
aI0
aI0
aI1
aI0
aI0
aI0
aI0
aI0
aI0
aI0
aI3
aI0
aI0
aI1
aI0
aI0
aa(lp146
I32
aI8
aI183
aI0
aI0
aI22
aI0
aI4
aI11
aI23
aI62
aI491
aI298
aI589
aI106
aI3
aI126
aI71
aI646
aI5
aI1
aI0
aI29
aI5
aI53
aI0
aI0
aI0
aI0
aI0
aI5
aI12
aI0
aa(lp147
I0
aI0
aI0
aI0
aI0
aI0
aI0
aI0
aI0
aI0
aI0
aI0
aI0
aI0
aI0
aI0
aI0
aI0
aI0
aI0
aI0
aI0
aI0
aI0
aI0
aI0
aI0
aI0
aI0
aI0
aI0
aI0
aI0
aa(lp148
I82
aI0
aI0
aI0
aI0
aI62
aI0
aI0
aI74
aI0
aI0
aI9
aI0
aI0
aI89
aI0
aI13
aI0
aI0
aI49
aI0
aI0
aI0
aI0
aI0
aI0
aI0
aI0
aI0
aI0
aI0
aI0
aI0
aa(lp149
I22
aI0
aI0
aI0
aI0
aI232
aI0
aI0
aI126
aI0
aI0
aI0
aI0
aI0
aI60
aI0
aI0
aI0
aI0
aI0
aI0
aI0
aI0
aI0
aI0
aI0
aI0
aI6
aI0
aI0
aI0
aI493
aI0
aa(lp150
I1
aI0
aI0
aI0
aI0
aI23
aI0
aI0
aI20
aI0
aI0
aI0
aI0
aI0
aI2
aI0
aI0
aI0
aI0
aI0
aI0
aI0
aI0
aI0
aI0
aI0
aI0
aI1
aI0
aI0
aI0
aI0
aI0
aa(lp151
I215
aI0
aI0
aI0
aI0
aI230
aI0
aI0
aI322
aI0
aI0
aI0
aI0
aI0
aI853
aI0
aI0
aI0
aI0
aI69
aI0
aI0
aI0
aI0
aI0
aI0
aI0
aI169
aI0
aI0
aI42
aI374
aI0
aa(lp152
I0
aI499
aI614
aI88
aI6
aI35
aI102
aI87
aI5
aI139
aI205
aI696
aI489
aI120
aI3
aI82
aI380
aI456
aI37
aI7
aI0
aI165
aI0
aI101
aI117
aI4
aI0
aI0
aI0
aI0
aI0
aI0
aI0
aa(lp153
I0
aI0
aI0
aI0
aI0
aI0
aI0
aI0
aI53
aI0
aI0
aI7
aI0
aI0
aI56
aI0
aI40
aI0
aI0
aI3
aI0
aI0
aI0
aI0
aI0
aI0
aI0
aI0
aI0
aI0
aI0
aI0
aI0
aa(lp154
I163
aI0
aI0
aI0
aI0
aI140
aI0
aI0
aI48
aI0
aI0
aI0
aI0
aI0
aI201
aI0
aI0
aI2
aI0
aI615
aI0
aI0
aI0
aI0
aI0
aI0
aI0
aI13
aI0
aI0
aI0
aI23
aI0
aa(lp155
I6
aI0
aI0
aI0
aI0
aI5
aI0
aI0
aI0
aI0
aI69
aI19
aI5
aI1
aI18
aI0
aI0
aI0
aI290
aI8
aI0
aI0
aI0
aI2
aI0
aI0
aI0
aI0
aI0
aI0
aI0
aI1
aI0
aa(lp156
I6
aI0
aI20
aI0
aI0
aI0
aI0
aI0
aI52
aI0
aI0
aI0
aI0
aI0
aI74
aI0
aI0
aI0
aI0
aI0
aI0
aI0
aI0
aI0
aI0
aI0
aI0
aI0
aI0
aI0
aI0
aI7
aI0
aa(lp157
I32
aI35
aI9
aI13
aI0
aI58
aI0
aI0
aI0
aI9
aI37
aI43
aI448
aI6
aI0
aI34
aI67
aI32
aI185
aI13
aI0
aI143
aI0
aI8
aI142
aI88
aI0
aI0
aI0
aI0
aI117
aI5
aI0
aa(lp158
I0
aI0
aI0
aI0
aI0
aI0
aI0
aI0
aI1
aI0
aI0
aI0
aI0
aI0
aI1
aI0
aI0
aI0
aI0
aI0
aI0
aI0
aI0
aI0
aI0
aI0
aI0
aI0
aI0
aI0
aI0
aI0
aI0
aa(lp159
I0
aI0
aI23
aI0
aI0
aI1
aI0
aI0
aI0
aI0
aI0
aI0
aI0
aI0
aI56
aI0
aI0
aI0
aI0
aI0
aI0
aI0
aI0
aI0
aI0
aI0
aI0
aI0
aI0
aI0
aI0
aI0
aI0
aa(lp160
I156
aI0
aI0
aI0
aI0
aI51
aI0
aI0
aI0
aI0
aI0
aI0
aI0
aI0
aI3
aI0
aI0
aI0
aI0
aI6
aI0
aI0
aI0
aI0
aI0
aI0
aI0
aI15
aI0
aI0
aI0
aI0
aI0
aa(lp161
I1
aI0
aI0
aI0
aI0
aI3
aI0
aI0
aI47
aI0
aI0
aI0
aI0
aI0
aI0
aI0
aI0
aI0
aI0
aI12
aI0
aI0
aI0
aI0
aI0
aI0
aI0
aI0
aI0
aI0
aI0
aI0
aI0
aa(lp162
I3
aI0
aI0
aI0
aI0
aI13
aI0
aI0
aI24
aI0
aI0
aI0
aI0
aI0
aI0
aI0
aI0
aI0
aI1
aI3
aI0
aI0
aI0
aI0
aI0
aI0
aI0
aI0
aI0
aI0
aI0
aI0
aI0
aa(lp163
I0
aI0
aI0
aI0
aI0
aI0
aI0
aI0
aI0
aI0
aI0
aI0
aI0
aI0
aI0
aI0
aI0
aI0
aI0
aI0
aI0
aI0
aI0
aI0
aI0
aI0
aI0
aI0
aI0
aI0
aI0
aI0
aI0
aa(lp164
I0
aI0
aI0
aI0
aI0
aI35
aI0
aI0
aI0
aI0
aI0
aI0
aI0
aI0
aI0
aI0
aI0
aI0
aI0
aI0
aI0
aI0
aI0
aI0
aI0
aI0
aI0
aI0
aI0
aI0
aI0
aI3
aI0
aa(lp165
I0
aI0
aI122
aI4
aI3
aI22
aI10
aI0
aI0
aI72
aI0
aI0
aI102
aI0
aI0
aI0
aI35
aI0
aI0
aI0
aI0
aI55
aI0
aI0
aI55
aI0
aI0
aI0
aI0
aI0
aI0
aI0
aI0
aa(lp166
I0
aI31
aI0
aI0
aI1
aI0
aI0
aI0
aI9
aI0
aI1
aI0
aI14
aI0
aI0
aI0
aI0
aI0
aI9
aI0
aI0
aI0
aI0
aI0
aI0
aI0
aI0
aI0
aI0
aI0
aI12
aI28
aI0
aa(lp167
I0
aI0
aI0
aI0
aI0
aI0
aI0
aI1
aI0
aI0
aI0
aI0
aI0
aI0
aI0
aI0
aI0
aI0
aI0
aI0
aI0
aI0
aI0
aI0
aI0
aI0
aI0
aI0
aI0
aI0
aI0
aI0
aI0
aa(lp168
I0
aI0
aI0
aI0
aI0
aI0
aI14
aI6
aI0
aI7
aI0
aI0
aI0
aI0
aI0
aI3
aI1
aI0
aI0
aI0
aI0
aI0
aI0
aI0
aI1
aI0
aI0
aI0
aI0
aI0
aI0
aI0
aI0
aa(lp169
I0
aI0
aI0
aI1
aI5
aI2
aI0
aI0
aI2
aI3
aI0
aI0
aI12
aI16
aI0
aI0
aI0
aI5
aI77
aI0
aI0
aI6
aI0
aI7
aI0
aI72
aI0
aI0
aI0
aI0
aI0
aI3
aI0
aa(lp170
I0
aI0
aI0
aI0
aI0
aI0
aI0
aI0
aI0
aI0
aI0
aI0
aI0
aI0
aI0
aI0
aI0
aI0
aI0
aI0
aI0
aI0
aI0
aI0
aI0
aI0
aI0
aI0
aI0
aI0
aI0
aI0
aI0
aaa(lp171
(lp172
I0
aI1
aI0
aI3
aI1
aI0
aI0
aI0
aI0
aI0
aI24
aI38
aI1
aI23
aI0
aI0
aI0
aI0
aI15
aI0
aI0
aI0
aI0
aI0
aI0
aI0
aI0
aI0
aI0
aI0
aI0
aI0
aI0
aa(lp173
I26
aI0
aI0
aI0
aI0
aI495
aI0
aI0
aI24
aI0
aI2
aI30
aI0
aI77
aI129
aI0
aI64
aI1
aI0
aI53
aI0
aI0
aI0
aI0
aI0
aI0
aI0
aI19
aI1
aI0
aI1
aI682
aI0
aa(lp174
I257
aI0
aI0
aI0
aI6
aI204
aI0
aI8
aI116
aI0
aI13
aI9
aI4
aI52
aI307
aI2
aI74
aI24
aI2
aI107
aI0
aI0
aI2
aI11
aI96
aI0
aI0
aI76
aI31
aI0
aI0
aI79
aI0
aa(lp175
I118
aI0
aI0
aI0
aI123
aI12
aI0
aI0
aI32
aI0
aI192
aI35
aI0
aI41
aI2733
aI0
aI39
aI20
aI1
aI55
aI0
aI0
aI0
aI64
aI1
aI0
aI0
aI0
aI0
aI0
aI0
aI0
aI0
aa(lp176
I286
aI0
aI140
aI0
aI0
aI277
aI3
aI1
aI602
aI0
aI48
aI313
aI21
aI380
aI425
aI84
aI41
aI219
aI0
aI307
aI1
aI0
aI0
aI23
aI33
aI0
aI3
aI51
aI190
aI0
aI2
aI38
aI0
aa(lp177
I0
aI0
aI5
aI0
aI1
aI0
aI0
aI0
aI0
aI2
aI3
aI0
aI18
aI2
aI0
aI0
aI0
aI13
aI169
aI0
aI0
aI2
aI1
aI3
aI15
aI0
aI0
aI0
aI0
aI0
aI0
aI0
aI0
aa(lp178
I289
aI0
aI0
aI2
aI327
aI61
aI0
aI7
aI99
aI0
aI30
aI17
aI0
aI132
aI0
aI12
aI0
aI0
aI0
aI42
aI0
aI0
aI0
aI0
aI0
aI0
aI0
aI0
aI11
aI0
aI0
aI0
aI0
aa(lp179
I208
aI11
aI71
aI8
aI165
aI61
aI51
aI22
aI33
aI0
aI45
aI89
aI19
aI161
aI129
aI0
aI37
aI0
aI26
aI100
aI0
aI0
aI1
aI1
aI1
aI0
aI0
aI27
aI10
aI0
aI0
aI3
aI0
aa(lp180
I0
aI0
aI5
aI0
aI0
aI0
aI0
aI32
aI0
aI0
aI0
aI5
aI16
aI5
aI0
aI0
aI0
aI14
aI1
aI0
aI0
aI5
aI0
aI0
aI0
aI0
aI0
aI0
aI0
aI0
aI0
aI0
aI0
aa(lp181
I0
aI49
aI0
aI0
aI8
aI6
aI0
aI5
aI0
aI0
aI26
aI13
aI27
aI62
aI0
aI0
aI9
aI439
aI66
aI0
aI31
aI0
aI2
aI194
aI58
aI2
aI0
aI0
aI0
aI0
aI0
aI0
aI0
aa(lp182
I212
aI0
aI1
aI0
aI0
aI33
aI0
aI0
aI68
aI0
aI0
aI94
aI0
aI16
aI240
aI0
aI236
aI40
aI273
aI221
aI0
aI0
aI28
aI0
aI0
aI0
aI0
aI0
aI0
aI0
aI0
aI0
aI0
aa(lp183
I1059
aI0
aI0
aI0
aI0
aI636
aI0
aI0
aI1317
aI0
aI144
aI37
aI0
aI0
aI1115
aI0
aI0
aI95
aI14
aI67
aI0
aI0
aI0
aI4
aI0
aI0
aI0
aI138
aI1390
aI0
aI81
aI259
aI0
aa(lp184
I97
aI0
aI0
aI0
aI0
aI541
aI0
aI3
aI70
aI0
aI13
aI131
aI1
aI393
aI153
aI33
aI0
aI75
aI3
aI724
aI0
aI0
aI21
aI3
aI0
aI6
aI0
aI85
aI42
aI0
aI0
aI309
aI0
aa(lp185
I335
aI1
aI0
aI83
aI40
aI434
aI0
aI5
aI2358
aI0
aI78
aI1
aI0
aI2385
aI250
aI2
aI12
aI62
aI454
aI83
aI0
aI0
aI34
aI16
aI0
aI60
aI0
aI278
aI970
aI0
aI6
aI1746
aI0
aa(lp186
I0
aI135
aI2
aI1
aI36
aI0
aI24
aI1
aI0
aI0
aI1
aI2
aI2
aI9
aI0
aI9
aI34
aI5
aI7
aI0
aI13
aI11
aI2
aI0
aI0
aI0
aI0
aI0
aI0
aI0
aI0
aI0
aI0
aa(lp187
I24
aI0
aI0
aI0
aI0
aI487
aI0
aI0
aI102
aI0
aI57
aI161
aI0
aI42
aI219
aI0
aI204
aI1
aI39
aI34
aI0
aI0
aI0
aI12
aI1
aI0
aI0
aI6
aI16
aI0
aI0
aI18
aI0
aa(lp188
I510
aI16
aI351
aI100
aI124
aI2326
aI560
aI35
aI418
aI0
aI125
aI39
aI81
aI998
aI262
aI72
aI34
aI113
aI446
aI174
aI9
aI203
aI29
aI20
aI185
aI0
aI0
aI173
aI793
aI0
aI26
aI213
aI0
aa(lp189
I106
aI0
aI0
aI0
aI0
aI141
aI0
aI0
aI51
aI0
aI792
aI733
aI37
aI166
aI126
aI108
aI2
aI156
aI2287
aI61
aI5
aI2
aI10
aI62
aI38
aI0
aI0
aI23
aI555
aI0
aI0
aI203
aI0
aa(lp190
I500
aI0
aI93
aI0
aI0
aI742
aI0
aI0
aI542
aI0
aI122
aI57
aI0
aI176
aI193
aI0
aI75
aI883
aI3
aI131
aI0
aI1
aI0
aI16
aI0
aI0
aI0
aI262
aI322
aI0
aI0
aI33
aI0
aa(lp191
I0
aI3
aI6
aI1
aI33
aI1
aI39
aI0
aI0
aI0
aI7
aI21
aI8
aI0
aI0
aI1
aI2
aI10
aI5
aI0
aI0
aI1
aI0
aI0
aI0
aI0
aI0
aI0
aI0
aI0
aI2
aI1
aI0
aa(lp192
I0
aI0
aI0
aI0
aI0
aI1
aI0
aI0
aI0
aI0
aI0
aI6
aI0
aI0
aI20
aI0
aI0
aI0
aI1
aI3
aI1
aI0
aI0
aI0
aI0
aI0
aI0
aI0
aI0
aI0
aI0
aI0
aI0
aa(lp193
I264
aI0
aI13
aI0
aI0
aI10
aI0
aI0
aI18
aI0
aI2
aI1
aI4
aI93
aI60
aI0
aI0
aI5
aI3
aI1
aI0
aI0
aI1
aI1
aI0
aI0
aI1
aI0
aI0
aI0
aI0
aI0
aI0
aa(lp194
I2
aI1
aI1
aI0
aI0
aI5
aI0
aI0
aI90
aI0
aI3
aI0
aI0
aI2
aI8
aI0
aI0
aI0
aI0
aI1
aI0
aI0
aI0
aI0
aI0
aI0
aI0
aI4
aI0
aI0
aI0
aI0
aI0
aa(lp195
I244
aI0
aI0
aI0
aI0
aI267
aI0
aI0
aI75
aI0
aI63
aI4
aI0
aI313
aI45
aI0
aI0
aI0
aI36
aI60
aI0
aI0
aI0
aI0
aI0
aI0
aI0
aI0
aI66
aI0
aI0
aI0
aI0
aa(lp196
I138
aI0
aI0
aI0
aI0
aI169
aI0
aI0
aI208
aI0
aI58
aI12
aI0
aI106
aI18
aI0
aI0
aI0
aI0
aI9
aI0
aI0
aI0
aI0
aI0
aI0
aI0
aI0
aI529
aI0
aI0
aI0
aI0
aa(lp197
I111
aI0
aI0
aI0
aI1
aI781
aI0
aI0
aI70
aI0
aI1
aI0
aI0
aI0
aI0
aI0
aI0
aI0
aI0
aI4
aI0
aI0
aI0
aI0
aI0
aI0
aI0
aI0
aI2
aI0
aI0
aI0
aI0
aa(lp198
I0
aI0
aI0
aI0
aI0
aI0
aI0
aI0
aI0
aI0
aI0
aI0
aI0
aI0
aI0
aI0
aI0
aI0
aI0
aI0
aI0
aI0
aI0
aI0
aI0
aI0
aI0
aI0
aI0
aI0
aI0
aI0
aI0
aa(lp199
I0
aI0
aI0
aI0
aI0
aI0
aI0
aI0
aI0
aI0
aI0
aI0
aI0
aI0
aI0
aI0
aI0
aI0
aI0
aI0
aI0
aI0
aI0
aI0
aI0
aI0
aI0
aI0
aI0
aI0
aI0
aI0
aI0
aa(lp200
I0
aI0
aI0
aI0
aI0
aI0
aI0
aI0
aI0
aI0
aI0
aI0
aI0
aI0
aI0
aI0
aI0
aI0
aI0
aI0
aI0
aI0
aI0
aI0
aI0
aI0
aI0
aI0
aI0
aI0
aI0
aI0
aI0
aa(lp201
I0
aI0
aI0
aI0
aI0
aI0
aI0
aI0
aI0
aI0
aI1
aI0
aI0
aI0
aI0
aI0
aI0
aI0
aI0
aI0
aI0
aI0
aI0
aI0
aI0
aI0
aI0
aI0
aI0
aI0
aI0
aI0
aI0
aa(lp202
I0
aI0
aI0
aI0
aI0
aI0
aI0
aI0
aI0
aI0
aI0
aI0
aI0
aI0
aI0
aI0
aI0
aI70
aI30
aI0
aI0
aI0
aI0
aI0
aI0
aI18
aI0
aI0
aI0
aI0
aI0
aI0
aI0
aa(lp203
I0
aI0
aI0
aI0
aI0
aI0
aI0
aI0
aI0
aI0
aI0
aI100
aI2
aI17
aI0
aI0
aI0
aI16
aI48
aI0
aI0
aI0
aI0
aI0
aI0
aI0
aI0
aI0
aI0
aI0
aI0
aI0
aI0
aa(lp204
I0
aI0
aI0
aI0
aI0
aI0
aI0
aI0
aI0
aI0
aI0
aI0
aI0
aI0
aI0
aI0
aI0
aI0
aI0
aI0
aI0
aI0
aI0
aI0
aI0
aI0
aI0
aI0
aI0
aI0
aI0
aI0
aI0
aaa(lp205
(lp206
I0
aI0
aI78
aI0
aI6
aI35
aI14
aI0
aI0
aI67
aI46
aI864
aI13
aI194
aI0
aI0
aI35
aI77
aI253
aI0
aI0
aI5
aI0
aI1
aI0
aI45
aI0
aI0
aI0
aI0
aI52
aI45
aI0
aa(lp207
I8
aI0
aI0
aI0
aI0
aI3
aI0
aI0
aI2
aI0
aI0
aI0
aI0
aI0
aI1
aI0
aI0
aI0
aI0
aI12
aI0
aI0
aI0
aI0
aI0
aI0
aI0
aI14
aI0
aI0
aI0
aI0
aI0
aa(lp208
I0
aI0
aI0
aI0
aI0
aI0
aI0
aI0
aI0
aI0
aI0
aI0
aI0
aI0
aI0
aI0
aI0
aI0
aI0
aI0
aI0
aI0
aI0
aI0
aI0
aI0
aI0
aI0
aI0
aI0
aI0
aI0
aI0
aa(lp209
I2
aI0
aI0
aI0
aI0
aI0
aI0
aI0
aI0
aI0
aI0
aI9
aI0
aI0
aI0
aI0
aI0
aI0
aI0
aI3
aI0
aI0
aI0
aI0
aI0
aI0
aI0
aI0
aI0
aI0
aI0
aI0
aI0
aa(lp210
I334
aI0
aI0
aI0
aI0
aI281
aI0
aI0
aI11
aI0
aI0
aI0
aI0
aI0
aI80
aI0
aI0
aI0
aI0
aI154
aI0
aI0
aI0
aI0
aI0
aI0
aI0
aI137
aI13
aI0
aI0
aI3
aI0
aa(lp211
I0
aI34
aI30
aI25
aI3
aI1
aI0
aI3
aI0
aI54
aI34
aI694
aI56
aI916
aI0
aI0
aI69
aI144
aI485
aI0
aI0
aI0
aI0
aI6
aI84
aI1
aI0
aI0
aI0
aI0
aI0
aI0
aI0
aa(lp212
I17
aI0
aI0
aI0
aI0
aI8
aI0
aI0
aI0
aI0
aI0
aI0
aI0
aI0
aI0
aI0
aI0
aI0
aI0
aI0
aI0
aI0
aI0
aI0
aI0
aI0
aI0
aI0
aI0
aI0
aI0
aI0
aI0
aa(lp213
I0
aI0
aI7
aI0
aI0
aI0
aI0
aI0
aI0
aI0
aI0
aI0
aI0
aI0
aI0
aI0
aI0
aI0
aI0
aI0
aI0
aI0
aI0
aI0
aI0
aI0
aI0
aI0
aI0
aI0
aI0
aI0
aI0
aa(lp214
I0
aI0
aI332
aI10
aI152
aI126
aI3
aI221
aI2
aI20
aI9
aI319
aI287
aI32
aI0
aI8
aI28
aI14
aI297
aI0
aI0
aI14
aI1
aI4
aI7
aI25
aI0
aI0
aI0
aI0
aI5
aI25
aI0
aa(lp215
I0
aI0
aI0
aI0
aI0
aI0
aI0
aI0
aI0
aI0
aI0
aI0
aI0
aI0
aI0
aI0
aI0
aI0
aI0
aI0
aI0
aI0
aI0
aI0
aI0
aI0
aI0
aI0
aI0
aI0
aI0
aI0
aI0
aa(lp216
I39
aI0
aI0
aI0
aI0
aI13
aI0
aI0
aI60
aI0
aI0
aI0
aI0
aI0
aI28
aI0
aI0
aI0
aI0
aI51
aI0
aI0
aI0
aI0
aI0
aI0
aI0
aI0
aI0
aI0
aI0
aI0
aI0
aa(lp217
I1
aI0
aI0
aI0
aI0
aI0
aI0
aI0
aI19
aI0
aI0
aI0
aI0
aI0
aI0
aI0
aI0
aI0
aI0
aI0
aI0
aI0
aI0
aI0
aI0
aI0
aI0
aI0
aI0
aI0
aI0
aI0
aI0
aa(lp218
I0
aI0
aI0
aI0
aI0
aI2
aI0
aI0
aI5
aI0
aI0
aI0
aI0
aI0
aI1
aI0
aI0
aI0
aI0
aI6
aI0
aI0
aI0
aI0
aI0
aI0
aI0
aI0
aI0
aI0
aI0
aI0
aI0
aa(lp219
I62
aI0
aI0
aI0
aI0
aI52
aI0
aI0
aI105
aI0
aI0
aI0
aI0
aI0
aI824
aI0
aI0
aI0
aI0
aI26
aI0
aI0
aI0
aI0
aI0
aI0
aI0
aI243
aI0
aI0
aI6
aI8
aI0
aa(lp220
I0
aI0
aI2
aI5
aI1
aI3
aI0
aI0
aI0
aI3
aI17
aI0
aI15
aI6
aI0
aI0
aI7
aI0
aI0
aI0
aI0
aI0
aI0
aI0
aI0
aI0
aI0
aI0
aI0
aI0
aI0
aI0
aI0
aa(lp221
I0
aI0
aI0
aI0
aI0
aI0
aI0
aI0
aI0
aI0
aI0
aI12
aI0
aI0
aI0
aI0
aI0
aI0
aI0
aI0
aI0
aI0
aI0
aI0
aI0
aI0
aI0
aI0
aI0
aI0
aI0
aI0
aI0
aa(lp222
I5
aI0
aI0
aI0
aI0
aI1
aI0
aI0
aI0
aI0
aI0
aI0
aI0
aI0
aI0
aI0
aI0
aI0
aI0
aI2
aI0
aI0
aI0
aI0
aI0
aI0
aI0
aI0
aI0
aI0
aI0
aI0
aI0
aa(lp223
I0
aI0
aI0
aI0
aI0
aI0
aI0
aI0
aI0
aI0
aI10
aI0
aI0
aI0
aI0
aI0
aI0
aI0
aI0
aI0
aI0
aI0
aI0
aI0
aI0
aI0
aI0
aI0
aI0
aI0
aI0
aI0
aI0
aa(lp224
I0
aI0
aI0
aI0
aI0
aI0
aI0
aI0
aI0
aI0
aI0
aI0
aI0
aI0
aI1
aI0
aI0
aI0
aI0
aI0
aI0
aI0
aI0
aI0
aI0
aI0
aI0
aI0
aI0
aI0
aI0
aI0
aI0
aa(lp225
I0
aI0
aI0
aI0
aI0
aI1
aI17
aI0
aI0
aI1
aI12
aI3
aI0
aI7
aI0
aI0
aI28
aI23
aI73
aI0
aI0
aI0
aI0
aI16
aI0
aI6
aI0
aI0
aI0
aI0
aI4
aI3
aI0
aa(lp226
I0
aI0
aI0
aI0
aI0
aI0
aI0
aI0
aI0
aI0
aI0
aI0
aI0
aI0
aI0
aI0
aI0
aI0
aI0
aI0
aI0
aI0
aI0
aI0
aI0
aI0
aI0
aI0
aI0
aI0
aI0
aI0
aI0
aa(lp227
I0
aI0
aI0
aI0
aI0
aI0
aI0
aI0
aI0
aI0
aI0
aI0
aI0
aI0
aI0
aI0
aI0
aI0
aI0
aI0
aI0
aI0
aI0
aI0
aI0
aI0
aI0
aI0
aI0
aI0
aI0
aI0
aI0
aa(lp228
I0
aI0
aI0
aI0
aI0
aI0
aI0
aI0
aI0
aI0
aI0
aI0
aI0
aI0
aI0
aI0
aI0
aI0
aI0
aI0
aI0
aI0
aI0
aI0
aI0
aI0
aI0
aI0
aI0
aI0
aI0
aI0
aI0
aa(lp229
I0
aI0
aI0
aI0
aI0
aI0
aI0
aI0
aI41
aI0
aI0
aI0
aI0
aI0
aI0
aI0
aI0
aI0
aI0
aI0
aI0
aI0
aI0
aI0
aI0
aI0
aI0
aI0
aI0
aI0
aI0
aI0
aI0
aa(lp230
I0
aI0
aI0
aI0
aI0
aI0
aI0
aI0
aI0
aI0
aI0
aI0
aI0
aI0
aI0
aI0
aI0
aI0
aI0
aI0
aI0
aI0
aI0
aI0
aI0
aI0
aI0
aI0
aI0
aI0
aI0
aI0
aI0
aa(lp231
I0
aI0
aI0
aI0
aI0
aI0
aI0
aI0
aI0
aI0
aI0
aI0
aI0
aI0
aI0
aI0
aI0
aI0
aI0
aI0
aI0
aI0
aI0
aI0
aI0
aI0
aI0
aI0
aI0
aI0
aI0
aI0
aI0
aa(lp232
I0
aI0
aI0
aI0
aI0
aI0
aI0
aI0
aI0
aI0
aI0
aI0
aI0
aI0
aI0
aI0
aI0
aI0
aI0
aI0
aI0
aI0
aI0
aI0
aI0
aI0
aI0
aI0
aI0
aI0
aI0
aI0
aI0
aa(lp233
I0
aI0
aI0
aI0
aI0
aI0
aI0
aI0
aI0
aI0
aI0
aI0
aI0
aI0
aI0
aI0
aI0
aI0
aI0
aI0
aI0
aI0
aI0
aI0
aI0
aI0
aI0
aI0
aI0
aI0
aI0
aI0
aI0
aa(lp234
I0
aI0
aI0
aI0
aI0
aI37
aI0
aI0
aI6
aI0
aI0
aI0
aI0
aI0
aI0
aI0
aI0
aI0
aI0
aI0
aI0
aI0
aI0
aI0
aI0
aI0
aI0
aI0
aI0
aI0
aI5
aI19
aI0
aa(lp235
I0
aI0
aI0
aI0
aI0
aI0
aI0
aI0
aI0
aI0
aI0
aI0
aI0
aI0
aI0
aI0
aI0
aI0
aI0
aI0
aI0
aI0
aI0
aI0
aI0
aI0
aI0
aI0
aI0
aI0
aI0
aI0
aI0
aa(lp236
I0
aI0
aI0
aI0
aI0
aI0
aI0
aI0
aI0
aI0
aI0
aI1
aI0
aI0
aI0
aI0
aI0
aI0
aI0
aI0
aI0
aI0
aI0
aI0
aI0
aI0
aI0
aI0
aI0
aI0
aI0
aI0
aI0
aa(lp237
I0
aI0
aI0
aI0
aI0
aI0
aI0
aI0
aI0
aI0
aI0
aI0
aI0
aI0
aI0
aI0
aI0
aI0
aI0
aI0
aI0
aI0
aI0
aI0
aI0
aI0
aI0
aI0
aI0
aI0
aI0
aI0
aI0
aa(lp238
I0
aI0
aI0
aI0
aI0
aI0
aI0
aI0
aI0
aI0
aI0
aI0
aI0
aI0
aI0
aI0
aI0
aI0
aI0
aI0
aI0
aI0
aI0
aI0
aI0
aI0
aI0
aI0
aI0
aI0
aI0
aI0
aI0
aaa(lp239
(lp240
I1
aI338
aI317
aI219
aI435
aI11
aI56
aI9
aI43
aI45
aI506
aI1123
aI606
aI336
aI73
aI533
aI191
aI320
aI618
aI12
aI3
aI235
aI67
aI82
aI41
aI64
aI0
aI0
aI0
aI0
aI4
aI43
aI0
aa(lp241
I35
aI0
aI0
aI0
aI0
aI49
aI0
aI0
aI63
aI0
aI0
aI1
aI0
aI0
aI26
aI0
aI13
aI0
aI0
aI24
aI0
aI0
aI0
aI0
aI0
aI0
aI0
aI3
aI0
aI0
aI0
aI0
aI0
aa(lp242
I175
aI0
aI0
aI0
aI0
aI361
aI0
aI0
aI112
aI0
aI3
aI34
aI0
aI2
aI178
aI0
aI77
aI0
aI0
aI116
aI0
aI0
aI0
aI0
aI0
aI0
aI0
aI44
aI0
aI0
aI0
aI15
aI0
aa(lp243
I50
aI0
aI0
aI0
aI0
aI0
aI0
aI0
aI40
aI0
aI0
aI272
aI0
aI10
aI127
aI0
aI11
aI0
aI0
aI16
aI0
aI0
aI0
aI0
aI0
aI0
aI0
aI0
aI0
aI0
aI0
aI0
aI0
aa(lp244
I312
aI0
aI13
aI0
aI0
aI361
aI0
aI0
aI22
aI0
aI10
aI0
aI0
aI71
aI192
aI0
aI93
aI0
aI0
aI140
aI0
aI0
aI0
aI0
aI0
aI0
aI0
aI31
aI0
aI0
aI0
aI1
aI0
aa(lp245
I0
aI0
aI25
aI0
aI0
aI1
aI0
aI0
aI0
aI22
aI2
aI61
aI183
aI140
aI0
aI0
aI86
aI0
aI39
aI0
aI0
aI0
aI1
aI0
aI4
aI0
aI0
aI0
aI0
aI0
aI1
aI0
aI0
aa(lp246
I67
aI0
aI0
aI0
aI0
aI28
aI0
aI0
aI11
aI0
aI0
aI0
aI0
aI0
aI1
aI0
aI0
aI0
aI0
aI2
aI0
aI0
aI0
aI0
aI0
aI0
aI0
aI0
aI0
aI0
aI0
aI0
aI0
aa(lp247
I17
aI0
aI3
aI0
aI0
aI1
aI0
aI0
aI0
aI0
aI0
aI3
aI0
aI0
aI0
aI0
aI2
aI0
aI0
aI2
aI0
aI0
aI0
aI0
aI0
aI0
aI0
aI0
aI0
aI0
aI0
aI0
aI0
aa(lp248
I22
aI0
aI31
aI0
aI19
aI5
aI0
aI0
aI5
aI1
aI2
aI194
aI11
aI58
aI18
aI0
aI64
aI1
aI130
aI0
aI0
aI0
aI10
aI12
aI0
aI1
aI0
aI0
aI0
aI0
aI4
aI10
aI0
aa(lp249
I0
aI0
aI0
aI0
aI0
aI0
aI0
aI0
aI0
aI0
aI0
aI0
aI0
aI0
aI0
aI0
aI0
aI0
aI0
aI0
aI0
aI0
aI0
aI0
aI0
aI0
aI0
aI0
aI0
aI0
aI0
aI0
aI0
aa(lp250
I27
aI0
aI0
aI0
aI0
aI8
aI0
aI0
aI102
aI0
aI0
aI0
aI0
aI0
aI87
aI0
aI0
aI0
aI0
aI20
aI0
aI0
aI0
aI0
aI0
aI0
aI0
aI0
aI0
aI0
aI0
aI0
aI0
aa(lp251
I51
aI0
aI0
aI0
aI0
aI81
aI0
aI0
aI121
aI0
aI0
aI0
aI0
aI0
aI107
aI0
aI0
aI0
aI0
aI6
aI0
aI0
aI0
aI0
aI0
aI0
aI0
aI7
aI0
aI0
aI4
aI0
aI0
aa(lp252
I57
aI0
aI0
aI0
aI0
aI159
aI0
aI0
aI3
aI0
aI0
aI0
aI0
aI0
aI266
aI0
aI0
aI0
aI0
aI30
aI0
aI0
aI0
aI0
aI0
aI0
aI0
aI45
aI0
aI0
aI0
aI13
aI0
aa(lp253
I1241
aI0
aI0
aI0
aI0
aI159
aI0
aI0
aI195
aI0
aI0
aI0
aI0
aI0
aI135
aI0
aI1
aI0
aI0
aI84
aI0
aI0
aI0
aI0
aI0
aI0
aI0
aI101
aI111
aI0
aI4
aI8
aI0
aa(lp254
I0
aI126
aI369
aI15
aI8
aI1
aI1
aI9
aI0
aI32
aI20
aI57
aI80
aI52
aI2
aI55
aI104
aI20
aI15
aI0
aI1
aI2
aI0
aI12
aI57
aI0
aI0
aI0
aI0
aI0
aI0
aI0
aI0
aa(lp255
I0
aI0
aI0
aI0
aI0
aI0
aI0
aI0
aI0
aI0
aI0
aI0
aI0
aI0
aI0
aI0
aI0
aI0
aI0
aI0
aI0
aI0
aI0
aI0
aI0
aI0
aI0
aI0
aI0
aI0
aI0
aI0
aI0
aa(lp256
I120
aI0
aI0
aI0
aI0
aI139
aI0
aI0
aI68
aI0
aI0
aI0
aI0
aI0
aI18
aI0
aI0
aI0
aI0
aI28
aI0
aI0
aI0
aI0
aI0
aI0
aI0
aI105
aI0
aI0
aI0
aI34
aI0
aa(lp257
I0
aI0
aI0
aI0
aI0
aI0
aI0
aI0
aI0
aI0
aI10
aI0
aI0
aI0
aI0
aI0
aI0
aI0
aI0
aI0
aI0
aI0
aI0
aI0
aI0
aI0
aI0
aI0
aI0
aI0
aI0
aI0
aI0
aa(lp258
I0
aI0
aI0
aI0
aI0
aI0
aI0
aI0
aI13
aI0
aI0
aI0
aI0
aI0
aI0
aI0
aI0
aI0
aI0
aI0
aI0
aI0
aI0
aI0
aI0
aI0
aI0
aI0
aI17
aI0
aI0
aI0
aI0
aa(lp259
I1
aI105
aI0
aI7
aI5
aI16
aI1
aI3
aI0
aI4
aI6
aI39
aI207
aI4
aI0
aI1
aI5
aI11
aI7
aI0
aI0
aI4
aI0
aI55
aI0
aI0
aI0
aI0
aI0
aI0
aI12
aI7
aI0
aa(lp260
I0
aI0
aI0
aI0
aI0
aI0
aI0
aI0
aI0
aI0
aI0
aI0
aI0
aI0
aI0
aI0
aI0
aI0
aI0
aI0
aI0
aI0
aI0
aI0
aI0
aI0
aI0
aI0
aI0
aI0
aI0
aI0
aI0
aa(lp261
I0
aI0
aI0
aI0
aI0
aI0
aI0
aI0
aI0
aI0
aI0
aI0
aI0
aI0
aI0
aI0
aI0
aI0
aI0
aI0
aI0
aI0
aI0
aI0
aI0
aI0
aI0
aI0
aI0
aI0
aI0
aI0
aI0
aa(lp262
I1
aI0
aI0
aI0
aI0
aI0
aI0
aI0
aI0
aI0
aI0
aI0
aI0
aI0
aI4
aI0
aI0
aI0
aI0
aI0
aI0
aI0
aI0
aI0
aI0
aI0
aI0
aI3
aI0
aI0
aI0
aI0
aI0
aa(lp263
I0
aI0
aI0
aI0
aI0
aI1
aI0
aI0
aI15
aI0
aI0
aI0
aI0
aI0
aI0
aI0
aI0
aI0
aI0
aI0
aI0
aI0
aI0
aI0
aI0
aI0
aI0
aI0
aI0
aI0
aI0
aI0
aI0
aa(lp264
I0
aI0
aI0
aI0
aI0
aI2
aI0
aI0
aI3
aI0
aI0
aI0
aI0
aI0
aI0
aI0
aI0
aI0
aI0
aI0
aI0
aI0
aI0
aI0
aI0
aI0
aI0
aI0
aI0
aI0
aI0
aI0
aI0
aa(lp265
I0
aI0
aI0
aI0
aI0
aI0
aI0
aI0
aI0
aI0
aI0
aI0
aI0
aI0
aI0
aI0
aI0
aI0
aI0
aI0
aI0
aI0
aI0
aI0
aI0
aI0
aI0
aI0
aI0
aI0
aI0
aI0
aI0
aa(lp266
I0
aI0
aI0
aI0
aI0
aI3
aI0
aI0
aI0
aI0
aI0
aI0
aI0
aI0
aI0
aI0
aI0
aI0
aI0
aI0
aI0
aI0
aI0
aI0
aI0
aI0
aI0
aI0
aI0
aI0
aI0
aI6
aI0
aa(lp267
I0
aI0
aI250
aI11
aI0
aI2
aI0
aI0
aI0
aI1
aI101
aI0
aI10
aI1
aI0
aI0
aI18
aI27
aI0
aI0
aI0
aI1
aI0
aI2
aI0
aI3
aI0
aI0
aI0
aI0
aI0
aI0
aI0
aa(lp268
I0
aI0
aI0
aI0
aI0
aI0
aI0
aI0
aI1
aI0
aI0
aI0
aI45
aI0
aI1
aI0
aI0
aI0
aI0
aI0
aI0
aI0
aI0
aI0
aI0
aI0
aI0
aI0
aI0
aI0
aI4
aI22
aI0
aa(lp269
I0
aI0
aI0
aI0
aI0
aI0
aI0
aI0
aI0
aI0
aI0
aI0
aI0
aI0
aI0
aI0
aI0
aI0
aI0
aI0
aI0
aI0
aI0
aI0
aI0
aI0
aI0
aI0
aI0
aI0
aI0
aI0
aI0
aa(lp270
I0
aI0
aI0
aI0
aI1
aI0
aI0
aI0
aI0
aI0
aI0
aI0
aI0
aI0
aI0
aI0
aI0
aI0
aI0
aI0
aI0
aI0
aI0
aI0
aI0
aI0
aI0
aI0
aI0
aI0
aI0
aI0
aI0
aa(lp271
I0
aI1
aI9
aI0
aI0
aI11
aI0
aI0
aI33
aI18
aI2
aI122
aI0
aI0
aI0
aI0
aI0
aI0
aI67
aI0
aI0
aI0
aI0
aI0
aI0
aI6
aI0
aI0
aI0
aI0
aI0
aI0
aI0
aa(lp272
I0
aI0
aI0
aI0
aI0
aI0
aI0
aI0
aI0
aI0
aI0
aI0
aI0
aI0
aI0
aI0
aI0
aI0
aI0
aI0
aI0
aI0
aI0
aI0
aI0
aI0
aI0
aI0
aI0
aI0
aI0
aI0
aI0
aaa(lp273
(lp274
I0
aI0
aI0
aI2
aI0
aI0
aI0
aI21
aI0
aI0
aI3
aI158
aI2
aI176
aI0
aI3
aI10
aI3
aI13
aI0
aI4
aI0
aI14
aI0
aI0
aI0
aI0
aI0
aI0
aI0
aI0
aI0
aI0
aa(lp275
I49
aI1
aI0
aI0
aI0
aI24
aI0
aI56
aI39
aI0
aI44
aI129
aI0
aI15
aI193
aI0
aI19
aI14
aI0
aI13
aI0
aI0
aI0
aI0
aI1
aI0
aI0
aI52
aI0
aI0
aI4
aI0
aI0
aa(lp276
I983
aI0
aI0
aI0
aI0
aI149
aI0
aI0
aI154
aI0
aI43
aI124
aI0
aI261
aI367
aI0
aI0
aI1
aI0
aI30
aI0
aI0
aI2
aI1
aI226
aI0
aI0
aI161
aI1
aI0
aI0
aI20
aI0
aa(lp277
I250
aI0
aI1
aI0
aI3
aI11
aI0
aI0
aI76
aI0
aI0
aI66
aI1
aI127
aI116
aI0
aI139
aI0
aI0
aI64
aI0
aI0
aI0
aI0
aI2
aI0
aI0
aI0
aI0
aI0
aI0
aI0
aI0
aa(lp278
I227
aI0
aI5
aI0
aI3
aI786
aI5
aI0
aI229
aI0
aI31
aI1
aI0
aI146
aI102
aI0
aI0
aI0
aI52
aI167
aI0
aI0
aI20
aI1
aI0
aI0
aI0
aI16
aI0
aI0
aI0
aI42
aI0
aa(lp279
I0
aI0
aI2
aI0
aI6
aI0
aI0
aI6
aI0
aI70
aI0
aI0
aI338
aI41
aI0
aI0
aI2
aI41
aI3
aI0
aI0
aI9
aI0
aI0
aI0
aI0
aI0
aI0
aI0
aI0
aI0
aI0
aI0
aa(lp280
I140
aI0
aI0
aI0
aI1
aI144
aI0
aI0
aI17
aI0
aI7
aI0
aI1
aI47
aI4
aI0
aI0
aI0
aI0
aI55
aI0
aI0
aI0
aI0
aI0
aI0
aI0
aI0
aI0
aI0
aI0
aI0
aI0
aa(lp281
I100
aI66
aI263
aI60
aI38
aI24
aI19
aI2
aI160
aI0
aI54
aI27
aI203
aI414
aI257
aI0
aI25
aI0
aI0
aI138
aI0
aI0
aI0
aI0
aI3
aI0
aI4
aI18
aI0
aI0
aI0
aI4
aI0
aa(lp282
I0
aI0
aI0
aI0
aI0
aI0
aI0
aI0
aI0
aI0
aI0
aI0
aI13
aI0
aI0
aI0
aI0
aI1
aI0
aI0
aI0
aI0
aI0
aI0
aI0
aI0
aI0
aI0
aI0
aI0
aI0
aI0
aI0
aa(lp283
I11
aI0
aI0
aI0
aI0
aI0
aI0
aI0
aI0
aI0
aI0
aI0
aI0
aI17
aI0
aI0
aI0
aI85
aI8
aI0
aI0
aI0
aI33
aI0
aI0
aI0
aI0
aI0
aI0
aI0
aI0
aI0
aI0
aa(lp284
I832
aI0
aI9
aI0
aI0
aI99
aI0
aI0
aI362
aI0
aI0
aI59
aI0
aI150
aI557
aI0
aI85
aI17
aI175
aI102
aI0
aI0
aI0
aI1
aI6
aI0
aI0
aI0
aI0
aI0
aI1
aI0
aI0
aa(lp285
I772
aI0
aI0
aI0
aI2
aI88
aI0
aI0
aI1584
aI0
aI7
aI91
aI0
aI0
aI586
aI0
aI0
aI1039
aI1
aI19
aI0
aI0
aI0
aI0
aI0
aI0
aI0
aI60
aI270
aI0
aI6
aI9
aI0
aa(lp286
I572
aI0
aI7
aI0
aI0
aI452
aI0
aI0
aI378
aI0
aI4
aI0
aI32
aI16
aI320
aI34
aI0
aI70
aI0
aI75
aI2
aI0
aI0
aI3
aI0
aI0
aI0
aI82
aI0
aI0
aI0
aI64
aI0
aa(lp287
I932
aI0
aI2
aI26
aI93
aI321
aI35
aI3
aI202
aI0
aI153
aI1
aI0
aI104
aI471
aI0
aI0
aI317
aI254
aI658
aI69
aI0
aI43
aI5
aI0
aI1
aI6
aI283
aI23
aI0
aI7
aI213
aI0
aa(lp288
I7
aI20
aI12
aI4
aI19
aI0
aI0
aI10
aI1
aI0
aI3
aI12
aI6
aI134
aI0
aI13
aI11
aI16
aI57
aI1
aI0
aI0
aI0
aI2
aI0
aI0
aI0
aI0
aI0
aI4
aI0
aI0
aI0
aa(lp289
I82
aI0
aI0
aI0
aI0
aI88
aI0
aI0
aI15
aI0
aI2
aI38
aI0
aI23
aI32
aI78
aI4
aI1
aI2
aI15
aI0
aI0
aI0
aI0
aI1
aI0
aI0
aI5
aI0
aI0
aI0
aI12
aI0
aa(lp290
I430
aI0
aI0
aI0
aI0
aI98
aI0
aI0
aI38
aI0
aI19
aI6
aI12
aI141
aI396
aI3
aI17
aI30
aI26
aI79
aI0
aI0
aI0
aI4
aI5
aI1
aI0
aI36
aI0
aI0
aI0
aI9
aI0
aa(lp291
I108
aI1
aI10
aI0
aI0
aI59
aI0
aI0
aI32
aI0
aI360
aI117
aI18
aI14
aI47
aI250
aI0
aI32
aI918
aI50
aI0
aI81
aI4
aI127
aI13
aI0
aI0
aI23
aI1650
aI0
aI0
aI18
aI0
aa(lp292
I501
aI0
aI26
aI0
aI0
aI1227
aI0
aI0
aI73
aI0
aI67
aI0
aI1
aI30
aI152
aI0
aI37
aI276
aI10
aI62
aI0
aI0
aI0
aI0
aI0
aI0
aI0
aI136
aI2055
aI0
aI0
aI10
aI0
aa(lp293
I0
aI0
aI0
aI0
aI0
aI0
aI0
aI0
aI0
aI0
aI0
aI0
aI2
aI1
aI0
aI0
aI0
aI5
aI0
aI0
aI0
aI0
aI0
aI1
aI0
aI0
aI0
aI0
aI0
aI0
aI0
aI0
aI0
aa(lp294
I2
aI0
aI0
aI0
aI0
aI2
aI0
aI0
aI10
aI0
aI0
aI0
aI2
aI0
aI8
aI0
aI22
aI0
aI34
aI1
aI0
aI0
aI0
aI0
aI8
aI0
aI0
aI1
aI0
aI0
aI0
aI0
aI0
aa(lp295
I22
aI1
aI15
aI0
aI0
aI0
aI0
aI0
aI30
aI0
aI0
aI21
aI0
aI29
aI165
aI0
aI3
aI45
aI0
aI4
aI0
aI0
aI0
aI0
aI0
aI0
aI0
aI0
aI0
aI0
aI0
aI0
aI0
aa(lp296
I172
aI0
aI0
aI0
aI0
aI434
aI0
aI0
aI204
aI0
aI3
aI0
aI0
aI0
aI125
aI0
aI0
aI0
aI0
aI99
aI0
aI0
aI0
aI0
aI0
aI0
aI0
aI74
aI0
aI0
aI0
aI0
aI0
aa(lp297
I132
aI0
aI0
aI0
aI0
aI771
aI0
aI0
aI134
aI0
aI51
aI0
aI4
aI305
aI10
aI0
aI0
aI0
aI66
aI7
aI0
aI0
aI0
aI0
aI0
aI0
aI0
aI0
aI11
aI0
aI0
aI0
aI0
aa(lp298
I11
aI0
aI6
aI0
aI0
aI114
aI0
aI0
aI63
aI0
aI186
aI213
aI1
aI24
aI0
aI1
aI0
aI0
aI0
aI11
aI0
aI0
aI0
aI0
aI0
aI0
aI0
aI0
aI278
aI0
aI0
aI0
aI0
aa(lp299
I61
aI0
aI0
aI0
aI0
aI115
aI0
aI0
aI15
aI0
aI0
aI0
aI0
aI6
aI0
aI0
aI0
aI0
aI0
aI25
aI0
aI0
aI0
aI0
aI0
aI0
aI0
aI0
aI0
aI0
aI0
aI0
aI0
aa(lp300
I0
aI0
aI0
aI0
aI0
aI0
aI0
aI0
aI0
aI0
aI0
aI0
aI0
aI0
aI0
aI0
aI0
aI0
aI0
aI0
aI0
aI0
aI0
aI0
aI0
aI0
aI0
aI0
aI0
aI0
aI0
aI0
aI0
aa(lp301
I0
aI0
aI0
aI0
aI0
aI0
aI0
aI0
aI0
aI0
aI0
aI0
aI0
aI0
aI0
aI0
aI0
aI0
aI0
aI0
aI0
aI0
aI0
aI0
aI0
aI0
aI0
aI0
aI0
aI0
aI0
aI0
aI0
aa(lp302
I0
aI0
aI0
aI0
aI0
aI0
aI0
aI0
aI0
aI0
aI0
aI0
aI0
aI0
aI0
aI0
aI0
aI0
aI0
aI0
aI0
aI0
aI0
aI0
aI0
aI0
aI0
aI0
aI0
aI0
aI0
aI0
aI0
aa(lp303
I0
aI0
aI0
aI0
aI0
aI0
aI0
aI0
aI0
aI0
aI0
aI0
aI0
aI0
aI0
aI0
aI0
aI0
aI2
aI0
aI0
aI0
aI0
aI0
aI0
aI0
aI0
aI0
aI0
aI0
aI0
aI0
aI0
aa(lp304
I0
aI0
aI0
aI0
aI0
aI0
aI0
aI0
aI0
aI0
aI0
aI0
aI0
aI1
aI0
aI0
aI0
aI0
aI4
aI0
aI0
aI0
aI0
aI0
aI0
aI1
aI0
aI0
aI0
aI0
aI0
aI0
aI0
aa(lp305
I0
aI0
aI2
aI0
aI0
aI1
aI1
aI2
aI0
aI0
aI0
aI12
aI81
aI9
aI0
aI0
aI0
aI0
aI162
aI0
aI0
aI53
aI0
aI0
aI0
aI0
aI0
aI0
aI0
aI0
aI5
aI0
aI0
aa(lp306
I0
aI0
aI0
aI0
aI0
aI0
aI0
aI0
aI0
aI0
aI0
aI0
aI0
aI0
aI0
aI0
aI0
aI0
aI0
aI0
aI0
aI0
aI0
aI0
aI0
aI0
aI0
aI0
aI0
aI0
aI0
aI0
aI0
aaa(lp307
(lp308
I0
aI0
aI0
aI0
aI0
aI0
aI0
aI0
aI0
aI1
aI0
aI0
aI0
aI11
aI0
aI0
aI0
aI0
aI0
aI0
aI0
aI0
aI0
aI0
aI0
aI0
aI0
aI0
aI0
aI0
aI0
aI0
aI0
aa(lp309
I0
aI0
aI0
aI0
aI0
aI0
aI0
aI0
aI0
aI0
aI0
aI0
aI0
aI0
aI1
aI0
aI0
aI0
aI0
aI48
aI0
aI0
aI0
aI0
aI0
aI0
aI0
aI0
aI0
aI0
aI0
aI0
aI0
aa(lp310
I0
aI0
aI0
aI0
aI0
aI0
aI0
aI0
aI0
aI0
aI0
aI0
aI0
aI0
aI0
aI0
aI0
aI0
aI0
aI0
aI0
aI0
aI0
aI0
aI0
aI0
aI0
aI0
aI0
aI0
aI0
aI0
aI0
aa(lp311
I0
aI0
aI0
aI0
aI0
aI0
aI0
aI0
aI0
aI0
aI0
aI0
aI0
aI0
aI0
aI0
aI0
aI0
aI0
aI0
aI0
aI0
aI0
aI0
aI0
aI0
aI0
aI0
aI0
aI0
aI0
aI0
aI0
aa(lp312
I4
aI0
aI0
aI0
aI0
aI166
aI0
aI0
aI17
aI0
aI0
aI0
aI0
aI0
aI1
aI0
aI0
aI0
aI0
aI89
aI0
aI0
aI0
aI0
aI0
aI0
aI0
aI0
aI0
aI0
aI0
aI25
aI0
aa(lp313
I0
aI0
aI0
aI0
aI0
aI0
aI0
aI0
aI0
aI1
aI0
aI0
aI0
aI0
aI0
aI0
aI6
aI0
aI0
aI0
aI0
aI0
aI0
aI0
aI0
aI0
aI0
aI0
aI0
aI0
aI0
aI0
aI0
aa(lp314
I0
aI0
aI0
aI0
aI0
aI0
aI0
aI0
aI0
aI0
aI0
aI0
aI0
aI0
aI0
aI0
aI0
aI0
aI0
aI0
aI0
aI0
aI0
aI0
aI0
aI0
aI0
aI0
aI0
aI0
aI0
aI0
aI0
aa(lp315
I5
aI0
aI0
aI0
aI0
aI1
aI0
aI0
aI0
aI0
aI0
aI0
aI0
aI0
aI0
aI0
aI0
aI0
aI0
aI0
aI0
aI0
aI0
aI0
aI0
aI0
aI0
aI0
aI0
aI0
aI0
aI0
aI0
aa(lp316
I0
aI0
aI0
aI0
aI0
aI0
aI0
aI0
aI0
aI0
aI1
aI0
aI0
aI0
aI0
aI0
aI0
aI0
aI0
aI0
aI0
aI0
aI0
aI0
aI0
aI0
aI0
aI0
aI0
aI0
aI0
aI0
aI0
aa(lp317
I0
aI0
aI0
aI0
aI0
aI0
aI0
aI0
aI0
aI0
aI0
aI0
aI0
aI0
aI0
aI0
aI0
aI0
aI0
aI0
aI0
aI0
aI0
aI0
aI0
aI0
aI0
aI0
aI0
aI0
aI0
aI0
aI0
aa(lp318
I34
aI0
aI0
aI0
aI0
aI29
aI0
aI0
aI46
aI0
aI0
aI0
aI0
aI0
aI7
aI0
aI0
aI0
aI0
aI36
aI0
aI0
aI0
aI0
aI0
aI0
aI0
aI0
aI0
aI0
aI0
aI0
aI0
aa(lp319
I4
aI0
aI0
aI0
aI0
aI11
aI0
aI0
aI4
aI0
aI0
aI0
aI0
aI0
aI5
aI0
aI0
aI0
aI0
aI0
aI0
aI0
aI0
aI0
aI0
aI0
aI0
aI3
aI1
aI0
aI0
aI1
aI0
aa(lp320
I31
aI0
aI0
aI0
aI0
aI34
aI0
aI0
aI4
aI0
aI0
aI0
aI0
aI0
aI3
aI0
aI0
aI27
aI0
aI26
aI0
aI0
aI0
aI0
aI0
aI0
aI0
aI0
aI0
aI0
aI0
aI0
aI0
aa(lp321
I35
aI0
aI0
aI0
aI0
aI90
aI0
aI0
aI39
aI0
aI0
aI0
aI0
aI0
aI167
aI0
aI0
aI0
aI0
aI25
aI0
aI0
aI0
aI0
aI0
aI0
aI0
aI82
aI0
aI0
aI3
aI1
aI0
aa(lp322
I0
aI0
aI28
aI0
aI0
aI0
aI0
aI0
aI0
aI0
aI0
aI0
aI0
aI14
aI0
aI0
aI61
aI0
aI0
aI0
aI0
aI0
aI0
aI0
aI0
aI0
aI0
aI0
aI0
aI0
aI0
aI0
aI0
aa(lp323
I0
aI0
aI0
aI0
aI0
aI2
aI0
aI0
aI0
aI0
aI0
aI0
aI0
aI0
aI0
aI0
aI0
aI0
aI0
aI49
aI0
aI0
aI0
aI0
aI0
aI0
aI0
aI0
aI0
aI0
aI0
aI0
aI0
aa(lp324
I0
aI0
aI0
aI0
aI0
aI0
aI0
aI0
aI0
aI0
aI0
aI0
aI0
aI0
aI9
aI0
aI0
aI0
aI0
aI0
aI0
aI0
aI0
aI0
aI0
aI0
aI0
aI0
aI0
aI0
aI0
aI0
aI0
aa(lp325
I2
aI0
aI0
aI0
aI0
aI44
aI0
aI0
aI0
aI0
aI197
aI0
aI0
aI0
aI1
aI0
aI0
aI0
aI349
aI0
aI0
aI0
aI0
aI0
aI0
aI0
aI0
aI0
aI0
aI0
aI0
aI163
aI0
aa(lp326
I1
aI0
aI0
aI0
aI0
aI252
aI0
aI0
aI205
aI0
aI0
aI0
aI0
aI0
aI0
aI0
aI12
aI6
aI0
aI0
aI0
aI0
aI0
aI0
aI0
aI0
aI0
aI0
aI0
aI0
aI0
aI0
aI0
aa(lp327
I0
aI0
aI0
aI0
aI0
aI0
aI0
aI0
aI0
aI0
aI0
aI0
aI0
aI0
aI0
aI0
aI0
aI0
aI0
aI0
aI0
aI0
aI0
aI0
aI0
aI0
aI0
aI0
aI0
aI0
aI0
aI0
aI0
aa(lp328
I12
aI0
aI0
aI0
aI0
aI2
aI0
aI0
aI0
aI0
aI0
aI0
aI0
aI0
aI3
aI0
aI0
aI0
aI0
aI3
aI0
aI0
aI0
aI0
aI0
aI0
aI0
aI3
aI1
aI0
aI0
aI0
aI0
aa(lp329
I0
aI0
aI0
aI0
aI0
aI0
aI0
aI0
aI0
aI0
aI0
aI0
aI0
aI0
aI0
aI0
aI0
aI0
aI0
aI0
aI0
aI0
aI0
aI0
aI0
aI0
aI0
aI0
aI0
aI0
aI0
aI0
aI0
aa(lp330
I20
aI0
aI0
aI0
aI0
aI5
aI0
aI0
aI0
aI0
aI0
aI0
aI0
aI0
aI4
aI0
aI0
aI0
aI0
aI2
aI0
aI0
aI0
aI0
aI0
aI0
aI0
aI7
aI0
aI0
aI0
aI0
aI0
aa(lp331
I194
aI0
aI0
aI0
aI0
aI0
aI0
aI0
aI2
aI0
aI0
aI0
aI0
aI0
aI0
aI0
aI0
aI0
aI0
aI0
aI0
aI0
aI0
aI0
aI0
aI0
aI0
aI0
aI0
aI0
aI0
aI0
aI0
aa(lp332
I2
aI0
aI0
aI0
aI0
aI70
aI0
aI0
aI54
aI0
aI0
aI0
aI0
aI0
aI0
aI0
aI0
aI0
aI0
aI4
aI0
aI0
aI0
aI0
aI0
aI0
aI0
aI0
aI0
aI0
aI0
aI0
aI0
aa(lp333
I0
aI0
aI0
aI0
aI0
aI0
aI0
aI0
aI2
aI0
aI0
aI0
aI0
aI0
aI0
aI0
aI0
aI0
aI0
aI0
aI0
aI0
aI0
aI0
aI0
aI0
aI0
aI0
aI0
aI0
aI0
aI0
aI0
aa(lp334
I0
aI0
aI0
aI0
aI0
aI0
aI0
aI0
aI0
aI0
aI0
aI0
aI0
aI0
aI0
aI0
aI0
aI0
aI0
aI0
aI0
aI0
aI0
aI0
aI0
aI0
aI0
aI0
aI0
aI0
aI0
aI0
aI0
aa(lp335
I0
aI0
aI0
aI0
aI0
aI0
aI0
aI0
aI0
aI0
aI0
aI0
aI0
aI0
aI0
aI0
aI0
aI0
aI0
aI0
aI0
aI0
aI0
aI0
aI0
aI0
aI0
aI0
aI0
aI0
aI0
aI0
aI0
aa(lp336
I0
aI0
aI0
aI0
aI0
aI0
aI0
aI0
aI0
aI0
aI0
aI0
aI0
aI0
aI0
aI0
aI0
aI0
aI0
aI0
aI0
aI0
aI0
aI0
aI0
aI0
aI0
aI0
aI0
aI0
aI0
aI0
aI0
aa(lp337
I0
aI0
aI0
aI0
aI0
aI0
aI0
aI0
aI0
aI0
aI0
aI0
aI0
aI0
aI0
aI0
aI0
aI0
aI0
aI0
aI0
aI0
aI0
aI0
aI0
aI0
aI0
aI0
aI0
aI0
aI0
aI0
aI0
aa(lp338
I0
aI0
aI0
aI0
aI0
aI0
aI0
aI0
aI0
aI0
aI0
aI0
aI0
aI0
aI0
aI0
aI0
aI0
aI0
aI0
aI0
aI0
aI0
aI0
aI0
aI0
aI0
aI0
aI0
aI0
aI0
aI0
aI0
aa(lp339
I0
aI0
aI0
aI0
aI0
aI0
aI0
aI0
aI0
aI0
aI0
aI0
aI0
aI0
aI0
aI0
aI0
aI0
aI0
aI0
aI0
aI0
aI0
aI0
aI0
aI0
aI0
aI0
aI0
aI0
aI0
aI0
aI0
aa(lp340
I0
aI0
aI0
aI0
aI0
aI0
aI0
aI0
aI0
aI0
aI0
aI0
aI0
aI0
aI0
aI0
aI0
aI0
aI0
aI0
aI0
aI0
aI0
aI0
aI0
aI0
aI0
aI0
aI0
aI0
aI0
aI0
aI0
aaa(lp341
(lp342
I0
aI106
aI46
aI0
aI5
aI29
aI460
aI1441
aI7
aI9
aI1929
aI395
aI522
aI158
aI0
aI370
aI288
aI106
aI354
aI6
aI32
aI183
aI8
aI84
aI30
aI0
aI0
aI0
aI0
aI0
aI70
aI269
aI0
aa(lp343
I1
aI0
aI0
aI0
aI0
aI0
aI0
aI0
aI0
aI0
aI0
aI0
aI0
aI0
aI0
aI0
aI0
aI0
aI0
aI0
aI0
aI0
aI0
aI0
aI0
aI0
aI0
aI0
aI0
aI0
aI0
aI0
aI0
aa(lp344
I44
aI2
aI0
aI0
aI0
aI13
aI0
aI0
aI19
aI0
aI0
aI0
aI0
aI0
aI78
aI0
aI0
aI0
aI0
aI5
aI0
aI0
aI0
aI0
aI0
aI0
aI0
aI4
aI0
aI0
aI0
aI0
aI0
aa(lp345
I0
aI0
aI0
aI0
aI0
aI0
aI0
aI0
aI0
aI0
aI0
aI0
aI0
aI0
aI0
aI0
aI0
aI0
aI0
aI0
aI0
aI0
aI0
aI0
aI0
aI0
aI0
aI0
aI0
aI0
aI0
aI0
aI0
aa(lp346
I0
aI0
aI0
aI0
aI0
aI0
aI0
aI0
aI0
aI0
aI0
aI0
aI0
aI0
aI0
aI0
aI0
aI0
aI0
aI0
aI0
aI0
aI0
aI0
aI0
aI0
aI0
aI0
aI0
aI0
aI0
aI0
aI0
aa(lp347
I15
aI19
aI3
aI0
aI0
aI0
aI0
aI0
aI0
aI12
aI0
aI6
aI18
aI0
aI0
aI9
aI6
aI6
aI43
aI0
aI0
aI0
aI0
aI0
aI0
aI0
aI0
aI0
aI0
aI0
aI0
aI0
aI0
aa(lp348
I0
aI0
aI0
aI0
aI0
aI25
aI0
aI0
aI0
aI0
aI0
aI0
aI0
aI0
aI0
aI0
aI0
aI0
aI0
aI0
aI0
aI0
aI0
aI0
aI0
aI0
aI0
aI0
aI0
aI0
aI0
aI0
aI0
aa(lp349
I7
aI0
aI0
aI0
aI0
aI14
aI0
aI0
aI0
aI0
aI0
aI0
aI0
aI0
aI12
aI0
aI0
aI0
aI0
aI0
aI0
aI0
aI0
aI0
aI0
aI0
aI0
aI0
aI0
aI0
aI0
aI0
aI0
aa(lp350
I0
aI0
aI180
aI0
aI40
aI323
aI0
aI0
aI0
aI388
aI0
aI16
aI289
aI204
aI1
aI118
aI41
aI32
aI6
aI0
aI0
aI315
aI0
aI0
aI7
aI0
aI0
aI0
aI0
aI0
aI0
aI1
aI0
aa(lp351
I0
aI0
aI0
aI0
aI0
aI0
aI0
aI0
aI0
aI0
aI0
aI0
aI0
aI0
aI0
aI0
aI0
aI0
aI0
aI0
aI0
aI0
aI0
aI0
aI0
aI0
aI0
aI0
aI0
aI0
aI0
aI0
aI0
aa(lp352
I6
aI0
aI0
aI0
aI0
aI0
aI0
aI0
aI0
aI0
aI0
aI0
aI0
aI0
aI2
aI0
aI0
aI0
aI0
aI40
aI0
aI0
aI0
aI0
aI0
aI0
aI0
aI0
aI0
aI0
aI0
aI0
aI0
aa(lp353
I222
aI0
aI0
aI0
aI0
aI65
aI0
aI2
aI257
aI0
aI0
aI0
aI0
aI0
aI140
aI0
aI0
aI0
aI0
aI66
aI0
aI0
aI0
aI0
aI0
aI0
aI0
aI10
aI3
aI0
aI389
aI51
aI0
aa(lp354
I1
aI0
aI0
aI0
aI0
aI0
aI0
aI0
aI0
aI0
aI0
aI0
aI0
aI0
aI0
aI0
aI0
aI0
aI0
aI0
aI0
aI0
aI0
aI0
aI0
aI0
aI0
aI0
aI0
aI0
aI0
aI0
aI0
aa(lp355
I41
aI0
aI0
aI0
aI0
aI22
aI0
aI0
aI57
aI0
aI0
aI0
aI0
aI0
aI159
aI0
aI0
aI0
aI0
aI481
aI0
aI0
aI0
aI0
aI0
aI0
aI0
aI0
aI0
aI0
aI0
aI4
aI0
aa(lp356
I1
aI23
aI651
aI1216
aI18
aI234
aI48
aI17
aI54
aI979
aI8
aI847
aI1205
aI1159
aI16
aI91
aI1083
aI271
aI793
aI6
aI14
aI3
aI0
aI131
aI75
aI2
aI0
aI0
aI0
aI0
aI3
aI21
aI0
aa(lp357
I0
aI0
aI0
aI0
aI0
aI0
aI0
aI0
aI0
aI0
aI0
aI0
aI0
aI0
aI0
aI0
aI0
aI0
aI0
aI0
aI0
aI0
aI0
aI0
aI0
aI0
aI0
aI0
aI0
aI0
aI0
aI0
aI0
aa(lp358
I653
aI0
aI0
aI0
aI0
aI422
aI0
aI0
aI260
aI0
aI0
aI0
aI0
aI0
aI347
aI0
aI0
aI0
aI0
aI361
aI0
aI0
aI0
aI0
aI0
aI0
aI0
aI824
aI0
aI0
aI29
aI8
aI0
aa(lp359
I11
aI0
aI16
aI0
aI0
aI8
aI0
aI0
aI54
aI0
aI0
aI0
aI2
aI0
aI10
aI17
aI0
aI0
aI54
aI3
aI8
aI0
aI1
aI0
aI0
aI0
aI0
aI7
aI0
aI0
aI0
aI6
aI0
aa(lp360
I47
aI0
aI0
aI0
aI0
aI34
aI0
aI0
aI207
aI0
aI0
aI0
aI0
aI10
aI535
aI0
aI94
aI0
aI0
aI15
aI0
aI0
aI0
aI0
aI0
aI0
aI0
aI31
aI0
aI0
aI0
aI1
aI0
aa(lp361
I1
aI16
aI15
aI0
aI213
aI6
aI0
aI23
aI0
aI2
aI16
aI86
aI38
aI105
aI0
aI97
aI147
aI184
aI16
aI1
aI0
aI17
aI2
aI64
aI28
aI1
aI0
aI0
aI0
aI0
aI173
aI3
aI0
aa(lp362
I0
aI0
aI0
aI0
aI0
aI0
aI0
aI0
aI0
aI0
aI0
aI0
aI0
aI0
aI0
aI0
aI0
aI0
aI0
aI0
aI0
aI0
aI0
aI0
aI0
aI0
aI0
aI0
aI1
aI0
aI0
aI0
aI0
aa(lp363
I0
aI0
aI0
aI0
aI0
aI0
aI0
aI0
aI0
aI0
aI0
aI0
aI0
aI0
aI0
aI0
aI0
aI0
aI0
aI0
aI0
aI0
aI0
aI0
aI0
aI0
aI0
aI0
aI0
aI0
aI0
aI0
aI0
aa(lp364
I0
aI0
aI0
aI0
aI0
aI7
aI0
aI0
aI65
aI0
aI0
aI0
aI0
aI0
aI0
aI0
aI0
aI0
aI0
aI0
aI0
aI0
aI0
aI0
aI0
aI0
aI0
aI0
aI0
aI0
aI0
aI0
aI0
aa(lp365
I0
aI0
aI0
aI0
aI0
aI1
aI0
aI0
aI0
aI0
aI0
aI0
aI0
aI0
aI0
aI0
aI0
aI0
aI0
aI0
aI0
aI0
aI0
aI0
aI0
aI0
aI0
aI0
aI0
aI0
aI0
aI0
aI0
aa(lp366
I0
aI0
aI0
aI0
aI0
aI3
aI0
aI0
aI6
aI0
aI0
aI0
aI0
aI0
aI0
aI0
aI0
aI0
aI0
aI2
aI0
aI0
aI0
aI0
aI0
aI0
aI0
aI0
aI0
aI0
aI0
aI0
aI0
aa(lp367
I0
aI0
aI0
aI0
aI0
aI0
aI0
aI0
aI0
aI0
aI0
aI0
aI0
aI0
aI0
aI0
aI0
aI0
aI0
aI0
aI0
aI0
aI0
aI0
aI0
aI0
aI0
aI0
aI0
aI0
aI0
aI0
aI0
aa(lp368
I0
aI0
aI0
aI0
aI0
aI0
aI0
aI0
aI0
aI0
aI0
aI0
aI0
aI0
aI0
aI0
aI0
aI0
aI0
aI0
aI0
aI0
aI0
aI0
aI0
aI0
aI0
aI0
aI0
aI0
aI0
aI0
aI0
aa(lp369
I0
aI0
aI0
aI0
aI0
aI0
aI0
aI0
aI0
aI0
aI0
aI0
aI0
aI0
aI0
aI0
aI0
aI0
aI0
aI0
aI0
aI0
aI0
aI0
aI1
aI0
aI0
aI0
aI0
aI0
aI0
aI0
aI0
aa(lp370
I0
aI0
aI0
aI0
aI0
aI0
aI0
aI0
aI0
aI0
aI0
aI0
aI0
aI0
aI0
aI0
aI0
aI0
aI0
aI0
aI0
aI0
aI0
aI0
aI0
aI0
aI0
aI0
aI0
aI0
aI4
aI0
aI0
aa(lp371
I0
aI0
aI0
aI0
aI0
aI0
aI0
aI0
aI0
aI0
aI0
aI0
aI0
aI0
aI0
aI0
aI0
aI0
aI0
aI0
aI0
aI0
aI0
aI0
aI0
aI0
aI0
aI0
aI0
aI0
aI0
aI0
aI0
aa(lp372
I0
aI0
aI2
aI0
aI0
aI0
aI0
aI0
aI0
aI0
aI0
aI0
aI0
aI0
aI0
aI0
aI1
aI0
aI0
aI0
aI0
aI0
aI0
aI0
aI0
aI0
aI0
aI0
aI0
aI0
aI0
aI0
aI0
aa(lp373
I0
aI0
aI0
aI0
aI0
aI0
aI0
aI0
aI0
aI0
aI0
aI0
aI0
aI0
aI0
aI0
aI0
aI0
aI0
aI0
aI0
aI0
aI0
aI0
aI0
aI0
aI0
aI0
aI0
aI0
aI0
aI0
aI0
aa(lp374
I0
aI0
aI0
aI0
aI0
aI0
aI0
aI0
aI0
aI0
aI0
aI0
aI0
aI0
aI0
aI0
aI0
aI0
aI0
aI0
aI0
aI0
aI0
aI0
aI0
aI0
aI0
aI0
aI0
aI0
aI0
aI0
aI0
aaa(lp375
(lp376
I0
aI125
aI336
aI290
aI354
aI97
aI73
aI436
aI0
aI26
aI158
aI246
aI153
aI653
aI0
aI22
aI27
aI1061
aI398
aI0
aI0
aI44
aI1
aI42
aI16
aI10
aI0
aI0
aI0
aI0
aI58
aI56
aI0
aa(lp377
I21
aI0
aI0
aI0
aI0
aI4
aI0
aI0
aI2
aI0
aI0
aI0
aI0
aI1
aI2
aI0
aI0
aI0
aI0
aI12
aI0
aI0
aI0
aI0
aI0
aI0
aI0
aI0
aI0
aI0
aI0
aI0
aI0
aa(lp378
I6
aI0
aI0
aI0
aI0
aI0
aI0
aI0
aI16
aI0
aI0
aI0
aI0
aI4
aI0
aI0
aI0
aI1
aI0
aI0
aI0
aI0
aI0
aI0
aI0
aI0
aI0
aI0
aI0
aI0
aI0
aI0
aI0
aa(lp379
I10
aI0
aI2
aI0
aI0
aI2
aI0
aI0
aI22
aI0
aI0
aI0
aI0
aI0
aI122
aI0
aI1
aI0
aI0
aI4
aI0
aI0
aI0
aI0
aI0
aI0
aI0
aI0
aI0
aI0
aI0
aI0
aI0
aa(lp380
I209
aI0
aI0
aI0
aI0
aI15
aI0
aI0
aI0
aI0
aI0
aI0
aI0
aI0
aI2
aI0
aI0
aI0
aI0
aI0
aI0
aI0
aI0
aI0
aI0
aI0
aI0
aI2
aI0
aI0
aI3
aI0
aI0
aa(lp381
I0
aI47
aI149
aI325
aI731
aI157
aI159
aI217
aI9
aI220
aI373
aI99
aI157
aI1398
aI12
aI113
aI53
aI272
aI740
aI5
aI21
aI0
aI47
aI168
aI2
aI2
aI0
aI0
aI0
aI1
aI12
aI8
aI0
aa(lp382
I96
aI0
aI0
aI0
aI0
aI128
aI0
aI0
aI26
aI0
aI0
aI0
aI0
aI149
aI3
aI0
aI0
aI0
aI0
aI0
aI0
aI0
aI0
aI0
aI0
aI0
aI0
aI0
aI0
aI0
aI0
aI0
aI0
aa(lp383
I11
aI0
aI0
aI0
aI0
aI2
aI0
aI0
aI0
aI0
aI1
aI10
aI0
aI1
aI0
aI0
aI0
aI0
aI3
aI2
aI0
aI0
aI0
aI0
aI0
aI0
aI0
aI0
aI0
aI0
aI0
aI0
aI0
aa(lp384
I118
aI40
aI362
aI106
aI14
aI25
aI157
aI256
aI12
aI19
aI218
aI380
aI26
aI531
aI26
aI14
aI33
aI1319
aI256
aI0
aI39
aI17
aI586
aI427
aI311
aI38
aI0
aI0
aI0
aI2
aI8
aI30
aI0
aa(lp385
I0
aI0
aI0
aI0
aI0
aI0
aI0
aI0
aI0
aI0
aI0
aI0
aI0
aI0
aI0
aI0
aI0
aI0
aI0
aI0
aI0
aI0
aI0
aI0
aI0
aI0
aI0
aI0
aI0
aI0
aI0
aI0
aI0
aa(lp386
I113
aI0
aI0
aI0
aI0
aI35
aI0
aI0
aI107
aI0
aI0
aI6
aI0
aI97
aI125
aI0
aI1
aI0
aI0
aI82
aI0
aI0
aI0
aI0
aI0
aI0
aI0
aI0
aI0
aI0
aI0
aI0
aI0
aa(lp387
I44
aI0
aI12
aI0
aI0
aI69
aI0
aI0
aI95
aI0
aI0
aI0
aI0
aI0
aI11
aI0
aI0
aI3
aI0
aI4
aI0
aI0
aI0
aI0
aI0
aI0
aI0
aI2
aI0
aI0
aI13
aI2
aI0
aa(lp388
I7
aI0
aI0
aI0
aI0
aI1
aI0
aI0
aI4
aI0
aI0
aI0
aI0
aI0
aI3
aI0
aI0
aI0
aI0
aI0
aI0
aI0
aI0
aI0
aI0
aI0
aI0
aI1
aI0
aI0
aI0
aI0
aI0
aa(lp389
I21
aI0
aI0
aI0
aI0
aI170
aI0
aI0
aI90
aI0
aI0
aI0
aI0
aI0
aI181
aI1
aI0
aI0
aI0
aI29
aI0
aI0
aI39
aI0
aI0
aI0
aI0
aI41
aI0
aI0
aI2
aI52
aI0
aa(lp390
I1
aI60
aI1298
aI142
aI223
aI45
aI441
aI2
aI8
aI84
aI145
aI10
aI311
aI393
aI4
aI112
aI6
aI1464
aI247
aI12
aI0
aI147
aI3
aI74
aI32
aI47
aI0
aI0
aI0
aI0
aI0
aI1
aI0
aa(lp391
I24
aI0
aI0
aI0
aI0
aI7
aI0
aI0
aI7
aI0
aI0
aI0
aI0
aI0
aI16
aI0
aI0
aI0
aI0
aI12
aI0
aI0
aI0
aI0
aI0
aI0
aI0
aI7
aI0
aI0
aI0
aI0
aI0
aa(lp392
I0
aI0
aI0
aI0
aI0
aI0
aI0
aI0
aI0
aI0
aI0
aI0
aI0
aI0
aI0
aI0
aI0
aI0
aI0
aI0
aI0
aI0
aI0
aI0
aI0
aI0
aI0
aI0
aI0
aI0
aI0
aI0
aI0
aa(lp393
I1
aI0
aI0
aI0
aI0
aI0
aI0
aI0
aI0
aI0
aI0
aI0
aI0
aI0
aI1
aI0
aI0
aI0
aI54
aI0
aI0
aI0
aI0
aI0
aI0
aI0
aI0
aI0
aI0
aI0
aI0
aI3131
aI0
aa(lp394
I32
aI0
aI0
aI0
aI3
aI3
aI0
aI0
aI0
aI0
aI0
aI1
aI0
aI0
aI14
aI0
aI0
aI0
aI0
aI4
aI0
aI0
aI0
aI0
aI0
aI0
aI0
aI9
aI0
aI0
aI0
aI0
aI0
aa(lp395
I0
aI166
aI0
aI65
aI37
aI3
aI166
aI3
aI0
aI45
aI20
aI2
aI17
aI20
aI1
aI71
aI2
aI10
aI27
aI0
aI2
aI73
aI0
aI723
aI176
aI0
aI0
aI0
aI0
aI4
aI27
aI3
aI0
aa(lp396
I0
aI0
aI0
aI0
aI0
aI2
aI0
aI0
aI0
aI0
aI0
aI1
aI0
aI0
aI0
aI0
aI0
aI0
aI0
aI0
aI0
aI0
aI0
aI0
aI0
aI0
aI0
aI0
aI0
aI0
aI0
aI0
aI0
aa(lp397
I0
aI0
aI0
aI0
aI0
aI0
aI0
aI0
aI0
aI0
aI0
aI0
aI0
aI0
aI0
aI0
aI0
aI0
aI0
aI0
aI0
aI0
aI0
aI0
aI0
aI0
aI0
aI0
aI0
aI0
aI0
aI0
aI0
aa(lp398
I0
aI0
aI0
aI0
aI0
aI1
aI0
aI0
aI0
aI0
aI0
aI0
aI0
aI0
aI0
aI0
aI0
aI0
aI0
aI0
aI0
aI0
aI0
aI0
aI0
aI0
aI0
aI0
aI0
aI0
aI0
aI0
aI0
aa(lp399
I77
aI0
aI0
aI0
aI0
aI2
aI0
aI0
aI5
aI0
aI6
aI0
aI0
aI3
aI3
aI0
aI0
aI0
aI0
aI2
aI0
aI0
aI0
aI0
aI0
aI0
aI0
aI0
aI2
aI0
aI0
aI0
aI0
aa(lp400
I0
aI0
aI0
aI0
aI0
aI1
aI0
aI0
aI0
aI0
aI0
aI0
aI0
aI0
aI0
aI0
aI0
aI0
aI0
aI0
aI0
aI0
aI0
aI0
aI0
aI0
aI0
aI0
aI0
aI0
aI0
aI0
aI0
aa(lp401
I0
aI0
aI0
aI0
aI0
aI1
aI0
aI0
aI5
aI0
aI0
aI0
aI0
aI0
aI0
aI0
aI0
aI0
aI0
aI2
aI0
aI0
aI0
aI0
aI0
aI0
aI0
aI0
aI0
aI0
aI0
aI0
aI0
aa(lp402
I0
aI0
aI0
aI0
aI0
aI0
aI0
aI0
aI0
aI0
aI0
aI0
aI0
aI0
aI0
aI0
aI0
aI0
aI0
aI0
aI0
aI0
aI0
aI0
aI0
aI0
aI0
aI0
aI0
aI0
aI0
aI0
aI0
aa(lp403
I0
aI188
aI34
aI0
aI0
aI61
aI6
aI0
aI0
aI100
aI6
aI30
aI70
aI10
aI0
aI0
aI0
aI18
aI7
aI0
aI0
aI63
aI0
aI0
aI259
aI0
aI0
aI0
aI0
aI0
aI0
aI0
aI0
aa(lp404
I0
aI15
aI3
aI2
aI28
aI22
aI0
aI281
aI1
aI0
aI1305
aI0
aI27
aI1978
aI9
aI1
aI0
aI257
aI154
aI0
aI20
aI0
aI248
aI51
aI657
aI10
aI0
aI0
aI0
aI0
aI35
aI34
aI0
aa(lp405
I0
aI0
aI0
aI0
aI0
aI0
aI0
aI0
aI0
aI0
aI0
aI0
aI0
aI0
aI0
aI0
aI0
aI0
aI0
aI0
aI0
aI0
aI0
aI0
aI26
aI0
aI0
aI0
aI0
aI0
aI0
aI0
aI0
aa(lp406
I0
aI282
aI6
aI0
aI303
aI0
aI5
aI19
aI0
aI1
aI34
aI6
aI5
aI25
aI3
aI2
aI2
aI68
aI37
aI0
aI0
aI12
aI4
aI382
aI6
aI2
aI0
aI0
aI0
aI0
aI2
aI0
aI0
aa(lp407
I0
aI0
aI13
aI19
aI381
aI65
aI41
aI11
aI0
aI27
aI4
aI186
aI69
aI217
aI0
aI37
aI36
aI26
aI165
aI0
aI0
aI38
aI10
aI2
aI1
aI6
aI0
aI0
aI0
aI0
aI133
aI49
aI0
aa(lp408
I0
aI0
aI0
aI0
aI0
aI0
aI0
aI0
aI0
aI0
aI0
aI0
aI0
aI0
aI0
aI0
aI0
aI0
aI0
aI0
aI0
aI0
aI0
aI0
aI0
aI0
aI0
aI0
aI0
aI0
aI0
aI0
aI0
aaa(lp409
(lp410
I0
aI0
aI11
aI122
aI25
aI111
aI31
aI22
aI0
aI95
aI61
aI620
aI38
aI472
aI0
aI0
aI173
aI128
aI438
aI0
aI0
aI94
aI58
aI6
aI371
aI0
aI0
aI0
aI0
aI0
aI178
aI79
aI0
aa(lp411
I34
aI0
aI0
aI0
aI0
aI3
aI0
aI0
aI19
aI0
aI0
aI3
aI0
aI0
aI5
aI0
aI2
aI0
aI0
aI18
aI0
aI0
aI0
aI0
aI0
aI0
aI0
aI24
aI0
aI0
aI0
aI0
aI0
aa(lp412
I0
aI0
aI0
aI0
aI0
aI0
aI0
aI0
aI0
aI0
aI0
aI0
aI0
aI0
aI7
aI0
aI0
aI0
aI0
aI0
aI0
aI0
aI0
aI0
aI0
aI0
aI0
aI0
aI0
aI0
aI0
aI0
aI0
aa(lp413
I0
aI0
aI0
aI0
aI0
aI0
aI0
aI0
aI0
aI0
aI0
aI5
aI0
aI60
aI0
aI0
aI0
aI0
aI0
aI0
aI0
aI0
aI0
aI0
aI0
aI0
aI0
aI0
aI0
aI0
aI0
aI0
aI0
aa(lp414
I0
aI0
aI0
aI0
aI0
aI0
aI0
aI0
aI0
aI0
aI0
aI0
aI0
aI0
aI0
aI0
aI0
aI0
aI0
aI0
aI0
aI0
aI0
aI0
aI0
aI0
aI0
aI0
aI0
aI0
aI0
aI0
aI0
aa(lp415
I0
aI6
aI15
aI4
aI278
aI172
aI108
aI4
aI6
aI38
aI17
aI238
aI17
aI2810
aI0
aI0
aI639
aI531
aI499
aI0
aI0
aI104
aI12
aI156
aI162
aI54
aI0
aI0
aI0
aI0
aI58
aI34
aI0
aa(lp416
I0
aI0
aI0
aI0
aI0
aI0
aI0
aI0
aI0
aI0
aI0
aI0
aI0
aI0
aI0
aI0
aI0
aI0
aI0
aI0
aI0
aI0
aI0
aI0
aI0
aI0
aI0
aI0
aI0
aI0
aI0
aI0
aI0
aa(lp417
I0
aI0
aI0
aI0
aI0
aI1
aI0
aI0
aI0
aI0
aI0
aI0
aI0
aI0
aI0
aI0
aI0
aI0
aI0
aI1
aI0
aI0
aI0
aI0
aI0
aI0
aI0
aI1
aI0
aI0
aI0
aI0
aI0
aa(lp418
I0
aI0
aI7
aI70
aI3
aI16
aI0
aI8
aI73
aI4
aI74
aI167
aI71
aI290
aI0
aI0
aI237
aI61
aI111
aI0
aI2
aI2
aI0
aI64
aI23
aI0
aI0
aI0
aI0
aI0
aI33
aI36
aI0
aa(lp419
I0
aI0
aI0
aI0
aI0
aI0
aI0
aI0
aI0
aI0
aI0
aI0
aI0
aI0
aI0
aI0
aI0
aI0
aI0
aI0
aI0
aI0
aI0
aI0
aI0
aI0
aI0
aI0
aI0
aI0
aI0
aI0
aI0
aa(lp420
I33
aI0
aI0
aI0
aI0
aI19
aI0
aI0
aI58
aI0
aI0
aI0
aI0
aI16
aI65
aI0
aI0
aI0
aI0
aI28
aI0
aI0
aI0
aI0
aI0
aI0
aI0
aI0
aI0
aI0
aI0
aI0
aI0
aa(lp421
I9
aI0
aI0
aI0
aI0
aI84
aI0
aI0
aI34
aI0
aI0
aI0
aI0
aI0
aI0
aI0
aI0
aI0
aI0
aI0
aI0
aI0
aI0
aI0
aI0
aI0
aI0
aI0
aI1
aI0
aI38
aI18
aI0
aa(lp422
I9
aI0
aI0
aI0
aI0
aI12
aI0
aI0
aI51
aI0
aI0
aI0
aI0
aI0
aI5
aI0
aI0
aI0
aI0
aI30
aI0
aI0
aI0
aI0
aI0
aI0
aI0
aI9
aI0
aI0
aI0
aI0
aI0
aa(lp423
I179
aI0
aI0
aI0
aI0
aI1474
aI0
aI0
aI173
aI0
aI0
aI0
aI0
aI0
aI777
aI0
aI0
aI0
aI0
aI30
aI0
aI0
aI0
aI0
aI0
aI0
aI0
aI151
aI0
aI0
aI22
aI16
aI0
aa(lp424
I1
aI27
aI61
aI673
aI80
aI531
aI868
aI170
aI318
aI349
aI89
aI270
aI208
aI187
aI6
aI33
aI363
aI163
aI472
aI22
aI1
aI4
aI17
aI72
aI28
aI184
aI0
aI0
aI0
aI0
aI81
aI126
aI0
aa(lp425
I42
aI0
aI0
aI0
aI0
aI34
aI0
aI0
aI5
aI0
aI0
aI28
aI0
aI0
aI25
aI0
aI13
aI0
aI0
aI9
aI0
aI0
aI0
aI0
aI0
aI0
aI0
aI10
aI78
aI0
aI0
aI0
aI0
aa(lp426
I62
aI0
aI0
aI0
aI0
aI9
aI0
aI0
aI0
aI0
aI0
aI0
aI0
aI0
aI0
aI0
aI0
aI0
aI0
aI14
aI0
aI0
aI0
aI0
aI0
aI0
aI0
aI0
aI0
aI0
aI0
aI0
aI0
aa(lp427
I7
aI0
aI0
aI0
aI0
aI0
aI0
aI0
aI0
aI0
aI2
aI0
aI0
aI0
aI0
aI0
aI0
aI0
aI26
aI0
aI0
aI0
aI0
aI0
aI0
aI0
aI0
aI0
aI0
aI0
aI0
aI139
aI0
aa(lp428
I0
aI0
aI0
aI0
aI0
aI3
aI0
aI0
aI0
aI0
aI0
aI0
aI0
aI0
aI0
aI0
aI0
aI0
aI0
aI0
aI0
aI0
aI0
aI0
aI0
aI0
aI0
aI0
aI0
aI0
aI0
aI0
aI0
aa(lp429
I0
aI0
aI0
aI1
aI26
aI0
aI69
aI26
aI0
aI0
aI2
aI38
aI10
aI73
aI0
aI0
aI47
aI35
aI73
aI0
aI2
aI4
aI0
aI41
aI8
aI31
aI0
aI0
aI0
aI0
aI32
aI0
aI0
aa(lp430
I2
aI0
aI0
aI0
aI0
aI0
aI0
aI0
aI3
aI0
aI0
aI0
aI0
aI0
aI7
aI0
aI0
aI0
aI0
aI0
aI0
aI0
aI0
aI0
aI0
aI0
aI0
aI0
aI0
aI0
aI0
aI0
aI0
aa(lp431
I0
aI0
aI0
aI0
aI0
aI0
aI0
aI0
aI0
aI0
aI0
aI0
aI0
aI0
aI0
aI0
aI0
aI0
aI0
aI0
aI0
aI0
aI0
aI0
aI0
aI0
aI0
aI0
aI0
aI0
aI0
aI0
aI0
aa(lp432
I4
aI0
aI0
aI0
aI0
aI13
aI0
aI0
aI0
aI0
aI0
aI0
aI0
aI0
aI0
aI0
aI0
aI0
aI0
aI2
aI0
aI0
aI0
aI0
aI0
aI0
aI0
aI10
aI0
aI0
aI0
aI0
aI0
aa(lp433
I42
aI0
aI0
aI0
aI0
aI9
aI0
aI0
aI18
aI0
aI0
aI0
aI0
aI0
aI0
aI0
aI0
aI0
aI0
aI1
aI0
aI0
aI0
aI0
aI0
aI0
aI0
aI0
aI0
aI0
aI0
aI0
aI0
aa(lp434
I0
aI0
aI0
aI0
aI0
aI0
aI0
aI0
aI0
aI0
aI0
aI0
aI0
aI0
aI0
aI0
aI0
aI0
aI0
aI0
aI0
aI0
aI0
aI0
aI0
aI0
aI0
aI0
aI0
aI0
aI0
aI0
aI0
aa(lp435
I0
aI0
aI0
aI0
aI0
aI0
aI0
aI0
aI9
aI0
aI0
aI0
aI0
aI0
aI0
aI0
aI0
aI0
aI0
aI0
aI0
aI0
aI0
aI0
aI0
aI0
aI0
aI0
aI0
aI0
aI0
aI0
aI0
aa(lp436
I0
aI0
aI0
aI0
aI0
aI0
aI0
aI0
aI0
aI0
aI0
aI0
aI0
aI0
aI0
aI0
aI0
aI0
aI0
aI0
aI0
aI0
aI0
aI0
aI0
aI0
aI0
aI0
aI0
aI0
aI0
aI0
aI0
aa(lp437
I0
aI0
aI50
aI4
aI0
aI59
aI0
aI3
aI0
aI118
aI17
aI48
aI65
aI0
aI0
aI0
aI0
aI254
aI21
aI0
aI0
aI61
aI0
aI52
aI69
aI0
aI0
aI0
aI0
aI0
aI0
aI0
aI0
aa(lp438
I0
aI0
aI0
aI0
aI7
aI8
aI0
aI0
aI8
aI0
aI0
aI0
aI0
aI0
aI0
aI0
aI0
aI0
aI0
aI0
aI0
aI0
aI0
aI0
aI0
aI0
aI0
aI0
aI0
aI0
aI1
aI13
aI0
aa(lp439
I0
aI0
aI0
aI0
aI0
aI0
aI0
aI0
aI0
aI0
aI0
aI0
aI1
aI0
aI0
aI0
aI2
aI0
aI0
aI0
aI0
aI0
aI0
aI0
aI0
aI0
aI0
aI0
aI0
aI0
aI0
aI0
aI0
aa(lp440
I0
aI0
aI0
aI0
aI0
aI0
aI0
aI0
aI0
aI0
aI0
aI0
aI0
aI0
aI0
aI0
aI0
aI0
aI32
aI0
aI0
aI0
aI0
aI0
aI0
aI0
aI0
aI0
aI0
aI0
aI0
aI0
aI0
aa(lp441
I0
aI0
aI0
aI48
aI0
aI0
aI0
aI0
aI0
aI0
aI12
aI4
aI4
aI16
aI0
aI0
aI0
aI15
aI100
aI0
aI0
aI0
aI0
aI1
aI0
aI9
aI0
aI0
aI0
aI0
aI0
aI0
aI0
aa(lp442
I0
aI0
aI0
aI0
aI0
aI0
aI0
aI0
aI0
aI0
aI0
aI0
aI0
aI0
aI0
aI0
aI0
aI0
aI0
aI0
aI0
aI0
aI0
aI0
aI0
aI0
aI0
aI0
aI0
aI0
aI0
aI0
aI0
aaa(lp443
(lp444
I0
aI155
aI403
aI82
aI1063
aI204
aI156
aI260
aI24
aI164
aI497
aI648
aI505
aI183
aI19
aI503
aI414
aI832
aI458
aI46
aI0
aI239
aI34
aI681
aI465
aI10
aI0
aI0
aI0
aI0
aI189
aI604
aI0
aa(lp445
I0
aI0
aI0
aI0
aI0
aI0
aI0
aI0
aI0
aI0
aI0
aI0
aI0
aI0
aI1
aI0
aI0
aI0
aI0
aI0
aI0
aI0
aI0
aI0
aI0
aI0
aI0
aI0
aI0
aI0
aI0
aI0
aI0
aa(lp446
I1
aI0
aI0
aI0
aI0
aI12
aI0
aI0
aI0
aI0
aI0
aI0
aI0
aI0
aI20
aI0
aI0
aI0
aI0
aI0
aI0
aI0
aI0
aI0
aI0
aI0
aI0
aI0
aI0
aI0
aI0
aI0
aI0
aa(lp447
I31
aI0
aI4
aI0
aI1
aI15
aI0
aI0
aI7
aI0
aI0
aI30
aI0
aI0
aI7
aI0
aI1
aI3
aI0
aI10
aI0
aI0
aI0
aI0
aI0
aI0
aI0
aI0
aI0
aI1
aI0
aI0
aI0
aa(lp448
I74
aI0
aI2
aI0
aI0
aI39
aI55
aI0
aI178
aI0
aI0
aI0
aI0
aI3
aI55
aI0
aI31
aI28
aI12
aI88
aI0
aI0
aI30
aI0
aI3
aI0
aI0
aI61
aI0
aI0
aI0
aI0
aI0
aa(lp449
I1
aI131
aI348
aI405
aI200
aI366
aI45
aI135
aI43
aI368
aI148
aI229
aI562
aI366
aI178
aI293
aI407
aI674
aI1013
aI114
aI4
aI25
aI276
aI313
aI69
aI0
aI0
aI0
aI0
aI0
aI2
aI7
aI0
aa(lp450
I22
aI0
aI0
aI0
aI0
aI385
aI0
aI0
aI0
aI0
aI0
aI0
aI0
aI0
aI0
aI0
aI0
aI0
aI0
aI0
aI0
aI0
aI0
aI0
aI0
aI0
aI0
aI0
aI0
aI0
aI0
aI0
aI0
aa(lp451
I2
aI0
aI0
aI0
aI0
aI0
aI0
aI0
aI22
aI0
aI0
aI0
aI0
aI0
aI2
aI0
aI0
aI0
aI0
aI1
aI0
aI0
aI0
aI0
aI0
aI0
aI0
aI3
aI0
aI0
aI0
aI0
aI0
aa(lp452
I33
aI34
aI104
aI30
aI1
aI1415
aI68
aI292
aI243
aI251
aI1475
aI396
aI774
aI20
aI0
aI8
aI48
aI56
aI395
aI0
aI5
aI310
aI186
aI476
aI18
aI9
aI0
aI0
aI0
aI0
aI132
aI1039
aI0
aa(lp453
I0
aI0
aI0
aI0
aI0
aI0
aI0
aI0
aI0
aI0
aI0
aI0
aI0
aI0
aI0
aI0
aI0
aI0
aI0
aI0
aI0
aI0
aI0
aI0
aI0
aI0
aI0
aI0
aI0
aI0
aI0
aI0
aI0
aa(lp454
I132
aI0
aI4
aI0
aI0
aI69
aI0
aI0
aI104
aI0
aI0
aI2
aI0
aI16
aI60
aI0
aI9
aI0
aI20
aI72
aI0
aI0
aI6
aI0
aI0
aI0
aI0
aI0
aI0
aI0
aI0
aI0
aI0
aa(lp455
I1
aI0
aI0
aI0
aI0
aI0
aI0
aI0
aI1
aI0
aI0
aI0
aI0
aI0
aI0
aI0
aI0
aI0
aI0
aI0
aI0
aI0
aI0
aI0
aI0
aI0
aI0
aI0
aI0
aI0
aI0
aI0
aI0
aa(lp456
I0
aI0
aI0
aI0
aI0
aI0
aI0
aI0
aI0
aI0
aI0
aI0
aI0
aI0
aI0
aI0
aI0
aI0
aI0
aI0
aI0
aI0
aI0
aI0
aI0
aI0
aI0
aI0
aI0
aI0
aI0
aI0
aI0
aa(lp457
I167
aI0
aI0
aI0
aI0
aI77
aI0
aI0
aI202
aI0
aI0
aI0
aI0
aI0
aI1692
aI0
aI0
aI0
aI0
aI140
aI0
aI0
aI0
aI0
aI0
aI0
aI0
aI1109
aI0
aI0
aI4
aI7
aI0
aa(lp458
I0
aI44
aI1069
aI1289
aI24
aI773
aI106
aI20
aI2
aI1253
aI79
aI26
aI684
aI7
aI21
aI128
aI179
aI1030
aI107
aI0
aI0
aI0
aI10
aI153
aI52
aI0
aI0
aI0
aI0
aI0
aI14
aI1
aI0
aa(lp459
I0
aI0
aI0
aI0
aI0
aI1
aI0
aI0
aI1
aI0
aI0
aI0
aI0
aI0
aI0
aI0
aI0
aI1
aI0
aI0
aI0
aI0
aI0
aI0
aI0
aI0
aI0
aI0
aI0
aI0
aI0
aI0
aI0
aa(lp460
I97
aI0
aI0
aI0
aI0
aI0
aI0
aI0
aI0
aI0
aI0
aI0
aI0
aI0
aI0
aI0
aI0
aI0
aI0
aI0
aI0
aI0
aI0
aI0
aI0
aI0
aI0
aI0
aI0
aI0
aI0
aI0
aI0
aa(lp461
I5
aI0
aI0
aI0
aI0
aI6
aI0
aI0
aI19
aI0
aI163
aI1
aI0
aI0
aI14
aI49
aI0
aI0
aI304
aI4
aI2
aI0
aI0
aI0
aI0
aI0
aI0
aI10
aI0
aI0
aI0
aI0
aI0
aa(lp462
I190
aI0
aI0
aI2
aI0
aI293
aI0
aI0
aI78
aI0
aI7
aI8
aI0
aI14
aI159
aI0
aI107
aI33
aI0
aI50
aI0
aI0
aI0
aI0
aI0
aI0
aI0
aI90
aI0
aI0
aI4
aI0
aI0
aa(lp463
I0
aI0
aI252
aI0
aI8
aI14
aI248
aI0
aI0
aI11
aI2
aI2529
aI2
aI3
aI0
aI0
aI23
aI45
aI710
aI0
aI0
aI0
aI0
aI0
aI16
aI5
aI0
aI0
aI0
aI0
aI453
aI4
aI0
aa(lp464
I0
aI0
aI0
aI0
aI0
aI5
aI0
aI0
aI1
aI0
aI0
aI3
aI0
aI0
aI60
aI0
aI6
aI0
aI0
aI1
aI0
aI0
aI0
aI0
aI0
aI0
aI0
aI0
aI0
aI0
aI0
aI0
aI0
aa(lp465
I0
aI0
aI0
aI0
aI0
aI0
aI0
aI0
aI0
aI0
aI0
aI0
aI0
aI0
aI1
aI0
aI0
aI0
aI0
aI0
aI0
aI0
aI0
aI0
aI0
aI0
aI0
aI0
aI0
aI0
aI0
aI0
aI0
aa(lp466
I74
aI0
aI0
aI0
aI0
aI122
aI0
aI0
aI86
aI0
aI0
aI0
aI0
aI0
aI48
aI0
aI0
aI0
aI0
aI34
aI0
aI0
aI0
aI0
aI0
aI0
aI0
aI22
aI0
aI0
aI0
aI0
aI0
aa(lp467
I55
aI0
aI0
aI0
aI0
aI44
aI0
aI0
aI168
aI0
aI0
aI0
aI0
aI0
aI1
aI0
aI0
aI0
aI0
aI5
aI0
aI0
aI0
aI0
aI0
aI0
aI0
aI0
aI0
aI0
aI0
aI0
aI0
aa(lp468
I0
aI0
aI0
aI0
aI0
aI1
aI0
aI0
aI1
aI0
aI0
aI0
aI0
aI0
aI0
aI0
aI0
aI0
aI0
aI0
aI0
aI0
aI0
aI0
aI0
aI0
aI0
aI0
aI0
aI0
aI0
aI0
aI0
aa(lp469
I0
aI0
aI0
aI0
aI0
aI0
aI0
aI0
aI72
aI0
aI0
aI0
aI0
aI0
aI0
aI0
aI0
aI0
aI0
aI0
aI0
aI0
aI0
aI0
aI0
aI0
aI0
aI0
aI0
aI0
aI0
aI0
aI0
aa(lp470
I0
aI0
aI0
aI0
aI0
aI6
aI0
aI0
aI0
aI0
aI0
aI0
aI0
aI0
aI0
aI0
aI0
aI0
aI0
aI0
aI0
aI0
aI0
aI0
aI0
aI0
aI0
aI0
aI0
aI0
aI1
aI0
aI0
aa(lp471
I0
aI0
aI8
aI0
aI0
aI895
aI0
aI0
aI0
aI1229
aI7
aI28
aI796
aI26
aI0
aI0
aI35
aI0
aI3
aI0
aI0
aI642
aI0
aI1
aI10
aI0
aI0
aI0
aI0
aI0
aI0
aI0
aI0
aa(lp472
I0
aI0
aI0
aI131
aI0
aI60
aI0
aI0
aI14
aI0
aI254
aI0
aI0
aI0
aI1
aI0
aI0
aI0
aI5
aI0
aI0
aI0
aI0
aI0
aI126
aI0
aI0
aI0
aI0
aI0
aI30
aI22
aI0
aa(lp473
I0
aI0
aI0
aI0
aI0
aI0
aI0
aI0
aI0
aI0
aI0
aI0
aI0
aI0
aI0
aI0
aI0
aI0
aI0
aI0
aI0
aI0
aI0
aI0
aI2
aI0
aI0
aI0
aI0
aI0
aI0
aI0
aI0
aa(lp474
I1
aI0
aI0
aI0
aI5
aI0
aI0
aI0
aI0
aI0
aI0
aI0
aI0
aI1
aI0
aI0
aI0
aI3
aI0
aI0
aI0
aI12
aI0
aI17
aI1
aI1
aI0
aI0
aI0
aI0
aI51
aI0
aI0
aa(lp475
I0
aI0
aI37
aI8
aI0
aI47
aI3
aI4
aI0
aI9
aI60
aI628
aI26
aI6
aI0
aI0
aI0
aI3
aI405
aI0
aI0
aI9
aI0
aI1
aI8
aI4
aI0
aI0
aI0
aI0
aI33
aI54
aI0
aa(lp476
I0
aI0
aI0
aI0
aI0
aI0
aI0
aI0
aI0
aI0
aI0
aI0
aI0
aI0
aI0
aI0
aI0
aI0
aI0
aI0
aI0
aI0
aI0
aI0
aI0
aI0
aI0
aI0
aI0
aI0
aI0
aI0
aI0
aaa(lp477
(lp478
I0
aI0
aI0
aI1
aI0
aI0
aI0
aI0
aI0
aI0
aI6
aI1
aI0
aI6
aI0
aI5
aI1
aI0
aI0
aI0
aI0
aI0
aI0
aI0
aI0
aI0
aI0
aI0
aI0
aI0
aI0
aI0
aI0
aa(lp479
I107
aI2
aI46
aI6
aI20
aI439
aI8
aI5
aI271
aI0
aI44
aI301
aI71
aI332
aI843
aI0
aI945
aI145
aI3
aI98
aI0
aI129
aI0
aI5
aI20
aI291
aI148
aI961
aI19
aI0
aI0
aI56
aI0
aa(lp480
I2070
aI0
aI0
aI0
aI0
aI1399
aI0
aI3
aI609
aI0
aI151
aI104
aI4
aI246
aI1478
aI8
aI101
aI221
aI40
aI247
aI0
aI0
aI10
aI5
aI3
aI4
aI0
aI417
aI87
aI0
aI0
aI39
aI0
aa(lp481
I269
aI2
aI0
aI3
aI928
aI73
aI0
aI0
aI327
aI0
aI0
aI339
aI0
aI149
aI2523
aI0
aI298
aI2
aI20
aI351
aI0
aI0
aI0
aI0
aI1
aI0
aI0
aI0
aI0
aI0
aI0
aI0
aI0
aa(lp482
I565
aI55
aI120
aI36
aI63
aI510
aI53
aI14
aI1204
aI0
aI96
aI40
aI12
aI1192
aI674
aI47
aI131
aI162
aI35
aI333
aI0
aI79
aI10
aI37
aI1
aI0
aI35
aI153
aI10
aI0
aI0
aI172
aI0
aa(lp483
I0
aI0
aI60
aI188
aI55
aI0
aI3
aI52
aI0
aI258
aI8
aI16
aI167
aI211
aI1
aI13
aI0
aI8
aI17
aI0
aI0
aI57
aI1
aI1
aI3
aI0
aI0
aI0
aI0
aI0
aI0
aI0
aI0
aa(lp484
I271
aI1
aI0
aI5
aI151
aI960
aI5
aI0
aI461
aI0
aI22
aI0
aI1
aI649
aI9
aI0
aI5
aI0
aI0
aI41
aI0
aI0
aI0
aI0
aI0
aI0
aI0
aI0
aI30
aI0
aI0
aI0
aI0
aa(lp485
I117
aI7
aI214
aI127
aI250
aI34
aI24
aI3
aI86
aI0
aI23
aI64
aI251
aI266
aI45
aI0
aI157
aI0
aI0
aI8
aI0
aI0
aI0
aI2
aI0
aI0
aI0
aI26
aI116
aI0
aI0
aI68
aI0
aa(lp486
I0
aI0
aI13
aI26
aI6
aI0
aI0
aI211
aI0
aI0
aI1
aI130
aI180
aI52
aI0
aI0
aI15
aI126
aI173
aI0
aI0
aI147
aI1
aI6
aI5
aI1
aI0
aI0
aI0
aI0
aI0
aI0
aI0
aa(lp487
I1
aI0
aI0
aI0
aI162
aI0
aI0
aI0
aI2
aI0
aI92
aI11
aI55
aI214
aI0
aI49
aI0
aI112
aI90
aI0
aI0
aI0
aI4
aI2
aI0
aI0
aI0
aI0
aI0
aI0
aI0
aI1
aI0
aa(lp488
I1076
aI0
aI2
aI0
aI0
aI23
aI0
aI1
aI154
aI0
aI18
aI87
aI0
aI101
aI546
aI0
aI281
aI11
aI96
aI110
aI0
aI0
aI0
aI0
aI4
aI0
aI0
aI0
aI0
aI0
aI0
aI0
aI0
aa(lp489
I174
aI23
aI15
aI163
aI217
aI874
aI389
aI49
aI497
aI0
aI250
aI44
aI24
aI627
aI1399
aI67
aI0
aI54
aI41
aI365
aI1
aI0
aI1
aI93
aI1
aI8
aI0
aI51
aI2542
aI0
aI89
aI70
aI0
aa(lp490
I337
aI77
aI0
aI0
aI0
aI373
aI0
aI0
aI237
aI0
aI83
aI16
aI8
aI518
aI419
aI132
aI6
aI11
aI0
aI697
aI7
aI0
aI4
aI33
aI0
aI3
aI0
aI80
aI0
aI0
aI0
aI16
aI0
aa(lp491
I1072
aI0
aI31
aI0
aI57
aI710
aI0
aI22
aI1122
aI0
aI85
aI0
aI0
aI177
aI306
aI0
aI27
aI54
aI184
aI256
aI7
aI0
aI159
aI200
aI0
aI11
aI1
aI118
aI97
aI0
aI32
aI349
aI0
aa(lp492
I0
aI295
aI0
aI0
aI9
aI0
aI0
aI0
aI0
aI0
aI0
aI0
aI0
aI0
aI0
aI6
aI72
aI3
aI35
aI0
aI0
aI0
aI3
aI2
aI0
aI5
aI0
aI0
aI0
aI0
aI0
aI0
aI0
aa(lp493
I392
aI0
aI0
aI0
aI0
aI178
aI0
aI0
aI145
aI0
aI94
aI158
aI0
aI59
aI233
aI0
aI426
aI0
aI20
aI206
aI0
aI0
aI0
aI4
aI1
aI0
aI0
aI185
aI10
aI0
aI0
aI79
aI0
aa(lp494
I947
aI34
aI128
aI128
aI66
aI337
aI57
aI7
aI689
aI0
aI34
aI41
aI401
aI99
aI2251
aI133
aI10
aI28
aI467
aI425
aI2
aI2
aI33
aI101
aI21
aI24
aI0
aI553
aI17
aI0
aI33
aI255
aI0
aa(lp495
I169
aI1
aI113
aI0
aI0
aI180
aI0
aI0
aI592
aI0
aI281
aI674
aI284
aI151
aI337
aI160
aI44
aI42
aI3708
aI103
aI12
aI41
aI11
aI15
aI4
aI0
aI0
aI124
aI1075
aI0
aI0
aI68
aI0
aa(lp496
I560
aI45
aI525
aI2
aI195
aI551
aI6
aI0
aI406
aI0
aI559
aI176
aI93
aI233
aI1778
aI249
aI558
aI239
aI68
aI105
aI1
aI22
aI9
aI84
aI18
aI1
aI10
aI150
aI96
aI0
aI0
aI278
aI0
aa(lp497
I0
aI15
aI2
aI2
aI10
aI0
aI1
aI0
aI0
aI0
aI0
aI5
aI17
aI9
aI0
aI4
aI0
aI3
aI33
aI0
aI0
aI0
aI0
aI7
aI0
aI0
aI0
aI0
aI0
aI0
aI0
aI0
aI0
aa(lp498
I4
aI0
aI0
aI0
aI0
aI74
aI0
aI0
aI186
aI0
aI0
aI1
aI0
aI0
aI57
aI0
aI2
aI5
aI0
aI1
aI0
aI0
aI0
aI0
aI0
aI0
aI0
aI1
aI0
aI0
aI0
aI0
aI0
aa(lp499
I34
aI0
aI46
aI0
aI0
aI4
aI0
aI0
aI32
aI0
aI0
aI45
aI9
aI136
aI470
aI0
aI207
aI0
aI0
aI9
aI0
aI0
aI0
aI0
aI3
aI0
aI0
aI0
aI0
aI0
aI0
aI0
aI0
aa(lp500
I7
aI0
aI11
aI0
aI0
aI117
aI0
aI0
aI47
aI0
aI0
aI0
aI0
aI0
aI0
aI0
aI0
aI0
aI0
aI0
aI0
aI0
aI0
aI0
aI0
aI0
aI0
aI0
aI0
aI0
aI0
aI0
aI0
aa(lp501
I64
aI0
aI4
aI0
aI0
aI885
aI0
aI0
aI283
aI0
aI278
aI2
aI0
aI391
aI1
aI0
aI0
aI0
aI121
aI164
aI0
aI0
aI0
aI56
aI0
aI0
aI0
aI0
aI156
aI0
aI0
aI0
aI0
aa(lp502
I56
aI0
aI5
aI0
aI0
aI497
aI0
aI0
aI156
aI0
aI27
aI294
aI11
aI43
aI125
aI1
aI0
aI0
aI2
aI48
aI0
aI0
aI0
aI0
aI0
aI0
aI0
aI0
aI3
aI0
aI2
aI0
aI0
aa(lp503
I88
aI0
aI0
aI0
aI0
aI52
aI0
aI0
aI49
aI0
aI0
aI0
aI0
aI65
aI0
aI0
aI5
aI0
aI0
aI75
aI0
aI0
aI0
aI0
aI0
aI0
aI0
aI0
aI79
aI0
aI0
aI0
aI0
aa(lp504
I0
aI0
aI0
aI0
aI0
aI0
aI0
aI0
aI0
aI0
aI0
aI0
aI0
aI0
aI0
aI0
aI0
aI0
aI0
aI0
aI0
aI0
aI0
aI0
aI0
aI0
aI0
aI0
aI0
aI0
aI0
aI0
aI0
aa(lp505
I0
aI0
aI0
aI0
aI0
aI0
aI0
aI0
aI0
aI0
aI0
aI0
aI0
aI0
aI0
aI0
aI0
aI0
aI0
aI0
aI0
aI0
aI0
aI0
aI0
aI0
aI0
aI0
aI0
aI0
aI0
aI0
aI0
aa(lp506
I0
aI0
aI0
aI0
aI0
aI0
aI0
aI0
aI0
aI0
aI0
aI0
aI0
aI0
aI0
aI0
aI0
aI0
aI0
aI0
aI0
aI0
aI0
aI0
aI0
aI0
aI0
aI0
aI0
aI0
aI0
aI0
aI0
aa(lp507
I0
aI0
aI0
aI0
aI0
aI0
aI0
aI0
aI0
aI0
aI4
aI2
aI0
aI6
aI0
aI0
aI0
aI0
aI103
aI0
aI0
aI0
aI0
aI0
aI0
aI0
aI0
aI0
aI0
aI0
aI0
aI0
aI0
aa(lp508
I0
aI0
aI0
aI0
aI0
aI4
aI0
aI18
aI0
aI0
aI0
aI0
aI0
aI0
aI0
aI0
aI0
aI19
aI8
aI0
aI0
aI0
aI0
aI0
aI0
aI2
aI0
aI0
aI0
aI0
aI6
aI0
aI0
aa(lp509
I0
aI0
aI219
aI0
aI3
aI0
aI5
aI3
aI0
aI0
aI7
aI205
aI0
aI106
aI0
aI0
aI0
aI69
aI135
aI0
aI0
aI0
aI0
aI0
aI0
aI88
aI0
aI0
aI0
aI0
aI0
aI0
aI0
aa(lp510
I0
aI0
aI0
aI0
aI0
aI0
aI0
aI0
aI0
aI0
aI0
aI0
aI0
aI0
aI0
aI0
aI0
aI0
aI0
aI0
aI0
aI0
aI0
aI0
aI0
aI0
aI0
aI0
aI0
aI0
aI0
aI0
aI0
aaa(lp511
(lp512
I0
aI0
aI24
aI6
aI158
aI20
aI25
aI9
aI2
aI62
aI49
aI640
aI86
aI106
aI0
aI39
aI426
aI424
aI151
aI16
aI2
aI107
aI12
aI38
aI10
aI0
aI0
aI0
aI0
aI0
aI19
aI18
aI0
aa(lp513
I0
aI0
aI0
aI0
aI0
aI0
aI0
aI0
aI0
aI0
aI0
aI0
aI0
aI0
aI0
aI0
aI0
aI0
aI0
aI0
aI0
aI0
aI0
aI0
aI0
aI0
aI0
aI0
aI0
aI0
aI0
aI0
aI0
aa(lp514
I0
aI0
aI0
aI0
aI0
aI0
aI0
aI0
aI0
aI0
aI0
aI0
aI0
aI0
aI0
aI0
aI0
aI0
aI0
aI0
aI0
aI0
aI0
aI0
aI0
aI0
aI0
aI0
aI0
aI0
aI0
aI0
aI0
aa(lp515
I0
aI0
aI0
aI0
aI0
aI0
aI0
aI0
aI0
aI0
aI0
aI0
aI0
aI0
aI0
aI0
aI0
aI0
aI0
aI0
aI0
aI0
aI0
aI0
aI0
aI0
aI0
aI0
aI0
aI0
aI0
aI0
aI0
aa(lp516
I0
aI0
aI0
aI0
aI0
aI0
aI0
aI0
aI0
aI0
aI0
aI0
aI0
aI0
aI0
aI0
aI0
aI0
aI0
aI0
aI0
aI0
aI0
aI0
aI0
aI0
aI0
aI0
aI0
aI0
aI0
aI0
aI0
aa(lp517
I0
aI0
aI25
aI0
aI35
aI11
aI0
aI6
aI0
aI19
aI24
aI258
aI0
aI111
aI0
aI41
aI2160
aI37
aI89
aI0
aI1
aI22
aI96
aI114
aI126
aI9
aI0
aI0
aI0
aI0
aI7
aI0
aI0
aa(lp518
I0
aI0
aI0
aI0
aI0
aI0
aI0
aI0
aI0
aI0
aI0
aI0
aI0
aI0
aI0
aI0
aI0
aI0
aI0
aI0
aI0
aI0
aI0
aI0
aI0
aI0
aI0
aI0
aI0
aI0
aI0
aI0
aI0
aa(lp519
I0
aI0
aI0
aI0
aI0
aI0
aI0
aI0
aI0
aI0
aI0
aI0
aI0
aI0
aI0
aI0
aI0
aI0
aI0
aI0
aI0
aI0
aI0
aI0
aI0
aI0
aI0
aI0
aI0
aI0
aI0
aI0
aI0
aa(lp520
I5
aI0
aI133
aI5
aI9
aI4
aI4
aI2
aI7
aI3
aI21
aI278
aI8
aI160
aI42
aI3
aI147
aI401
aI330
aI0
aI0
aI18
aI3
aI16
aI29
aI30
aI0
aI0
aI0
aI0
aI4
aI2
aI0
aa(lp521
I0
aI0
aI0
aI0
aI0
aI0
aI0
aI0
aI0
aI0
aI0
aI0
aI0
aI0
aI0
aI0
aI0
aI0
aI0
aI0
aI0
aI0
aI0
aI0
aI0
aI0
aI0
aI0
aI0
aI0
aI0
aI0
aI0
aa(lp522
I30
aI0
aI0
aI0
aI0
aI5
aI0
aI0
aI46
aI0
aI0
aI0
aI0
aI0
aI40
aI0
aI0
aI0
aI0
aI85
aI0
aI0
aI0
aI0
aI0
aI0
aI0
aI0
aI0
aI0
aI0
aI0
aI0
aa(lp523
I809
aI0
aI0
aI0
aI0
aI340
aI0
aI0
aI71
aI0
aI0
aI0
aI0
aI0
aI260
aI0
aI0
aI0
aI0
aI9
aI0
aI0
aI0
aI0
aI0
aI0
aI0
aI78
aI6
aI0
aI50
aI52
aI0
aa(lp524
I0
aI0
aI0
aI0
aI0
aI0
aI0
aI0
aI0
aI0
aI0
aI0
aI0
aI0
aI0
aI0
aI0
aI0
aI0
aI0
aI0
aI0
aI0
aI0
aI0
aI0
aI0
aI0
aI0
aI0
aI0
aI0
aI0
aa(lp525
I16
aI0
aI0
aI0
aI0
aI10
aI0
aI0
aI63
aI0
aI0
aI0
aI0
aI0
aI95
aI0
aI0
aI0
aI0
aI103
aI0
aI0
aI0
aI0
aI0
aI0
aI0
aI41
aI0
aI0
aI1
aI0
aI0
aa(lp526
I2
aI289
aI601
aI296
aI2090
aI103
aI154
aI324
aI65
aI148
aI1111
aI1946
aI708
aI545
aI25
aI416
aI637
aI1484
aI859
aI21
aI1
aI266
aI27
aI379
aI154
aI11
aI0
aI0
aI0
aI102
aI0
aI211
aI0
aa(lp527
I78
aI0
aI0
aI0
aI0
aI20
aI0
aI0
aI1
aI0
aI3
aI0
aI0
aI0
aI3
aI0
aI0
aI0
aI0
aI8
aI0
aI0
aI0
aI0
aI0
aI0
aI0
aI5
aI0
aI0
aI0
aI0
aI0
aa(lp528
I1053
aI0
aI1
aI0
aI0
aI1369
aI0
aI0
aI3217
aI0
aI0
aI0
aI0
aI0
aI3875
aI0
aI0
aI0
aI1
aI17
aI0
aI0
aI0
aI0
aI0
aI0
aI0
aI81
aI0
aI0
aI0
aI313
aI0
aa(lp529
I1
aI0
aI0
aI0
aI0
aI4
aI0
aI0
aI46
aI0
aI0
aI0
aI0
aI0
aI3
aI0
aI0
aI0
aI0
aI10
aI0
aI0
aI0
aI0
aI0
aI0
aI0
aI3
aI0
aI0
aI0
aI0
aI0
aa(lp530
I33
aI0
aI1
aI0
aI0
aI10
aI0
aI0
aI90
aI0
aI0
aI0
aI0
aI0
aI5
aI0
aI0
aI0
aI0
aI1
aI0
aI0
aI0
aI0
aI0
aI0
aI0
aI4
aI0
aI0
aI0
aI0
aI0
aa(lp531
I0
aI13
aI0
aI66
aI5
aI0
aI0
aI14
aI0
aI0
aI0
aI118
aI0
aI13
aI0
aI2
aI6
aI699
aI213
aI0
aI1
aI23
aI0
aI23
aI36
aI22
aI0
aI0
aI0
aI0
aI4
aI0
aI0
aa(lp532
I0
aI0
aI0
aI0
aI0
aI0
aI0
aI0
aI0
aI0
aI0
aI0
aI0
aI0
aI0
aI0
aI0
aI0
aI0
aI0
aI0
aI0
aI0
aI0
aI0
aI0
aI0
aI0
aI0
aI0
aI0
aI0
aI0
aa(lp533
I0
aI0
aI0
aI0
aI0
aI0
aI0
aI0
aI0
aI0
aI0
aI0
aI0
aI0
aI0
aI0
aI0
aI0
aI0
aI0
aI0
aI0
aI0
aI0
aI0
aI0
aI0
aI0
aI0
aI0
aI0
aI0
aI0
aa(lp534
I0
aI0
aI0
aI0
aI0
aI0
aI0
aI0
aI1
aI0
aI0
aI0
aI0
aI0
aI0
aI0
aI0
aI0
aI0
aI0
aI0
aI0
aI0
aI0
aI0
aI0
aI0
aI0
aI0
aI0
aI0
aI0
aI0
aa(lp535
I4
aI0
aI0
aI0
aI0
aI12
aI0
aI0
aI1
aI0
aI0
aI0
aI0
aI0
aI0
aI0
aI0
aI0
aI0
aI2
aI0
aI1
aI0
aI0
aI0
aI0
aI0
aI0
aI0
aI0
aI0
aI0
aI0
aa(lp536
I0
aI0
aI0
aI0
aI0
aI0
aI0
aI0
aI3
aI0
aI0
aI0
aI0
aI0
aI1
aI0
aI0
aI0
aI0
aI1
aI0
aI0
aI0
aI0
aI0
aI0
aI0
aI0
aI0
aI0
aI0
aI0
aI0
aa(lp537
I0
aI0
aI0
aI0
aI0
aI0
aI0
aI0
aI0
aI0
aI0
aI0
aI0
aI0
aI0
aI0
aI0
aI0
aI0
aI0
aI0
aI0
aI0
aI0
aI0
aI0
aI0
aI0
aI0
aI0
aI0
aI0
aI0
aa(lp538
I0
aI0
aI0
aI0
aI0
aI0
aI0
aI0
aI0
aI0
aI0
aI0
aI0
aI0
aI0
aI0
aI0
aI0
aI0
aI0
aI0
aI0
aI0
aI0
aI0
aI0
aI0
aI0
aI0
aI0
aI0
aI0
aI0
aa(lp539
I0
aI0
aI22
aI0
aI0
aI8
aI0
aI0
aI0
aI5
aI0
aI50
aI9
aI0
aI0
aI0
aI4
aI0
aI327
aI0
aI0
aI53
aI0
aI0
aI16
aI0
aI0
aI0
aI0
aI0
aI0
aI0
aI0
aa(lp540
I0
aI0
aI0
aI0
aI0
aI22
aI0
aI0
aI0
aI0
aI0
aI0
aI0
aI0
aI0
aI0
aI0
aI0
aI2
aI0
aI0
aI0
aI0
aI0
aI0
aI0
aI0
aI0
aI0
aI0
aI93
aI27
aI0
aa(lp541
I0
aI0
aI0
aI0
aI0
aI0
aI0
aI0
aI0
aI0
aI0
aI0
aI0
aI0
aI0
aI0
aI0
aI0
aI0
aI0
aI0
aI0
aI0
aI0
aI0
aI0
aI0
aI0
aI0
aI0
aI0
aI0
aI0
aa(lp542
I0
aI0
aI0
aI0
aI0
aI0
aI0
aI0
aI0
aI0
aI0
aI0
aI0
aI0
aI0
aI0
aI9
aI0
aI0
aI0
aI0
aI0
aI0
aI0
aI2
aI0
aI0
aI0
aI0
aI0
aI0
aI0
aI0
aa(lp543
I0
aI0
aI0
aI0
aI1
aI0
aI0
aI0
aI0
aI0
aI0
aI16
aI1
aI0
aI0
aI0
aI0
aI36
aI216
aI0
aI0
aI1
aI0
aI2
aI0
aI22
aI0
aI0
aI0
aI0
aI0
aI0
aI0
aa(lp544
I0
aI0
aI0
aI0
aI0
aI0
aI0
aI0
aI0
aI0
aI0
aI0
aI0
aI0
aI0
aI0
aI0
aI0
aI0
aI0
aI0
aI0
aI0
aI0
aI0
aI0
aI0
aI0
aI0
aI0
aI0
aI0
aI0
aaa(lp545
(lp546
I0
aI741
aI1244
aI89
aI413
aI71
aI308
aI2079
aI31
aI172
aI162
aI837
aI177
aI859
aI3
aI92
aI20
aI1322
aI699
aI25
aI144
aI108
aI144
aI161
aI118
aI191
aI0
aI0
aI0
aI0
aI78
aI211
aI0
aa(lp547
I17
aI0
aI0
aI0
aI0
aI0
aI0
aI0
aI15
aI0
aI0
aI17
aI0
aI5
aI23
aI0
aI6
aI0
aI0
aI3
aI0
aI0
aI0
aI0
aI0
aI0
aI0
aI0
aI0
aI0
aI0
aI0
aI0
aa(lp548
I238
aI0
aI0
aI0
aI0
aI22
aI0
aI0
aI7
aI0
aI0
aI0
aI0
aI21
aI83
aI0
aI0
aI0
aI0
aI28
aI0
aI0
aI0
aI0
aI0
aI0
aI0
aI177
aI1
aI0
aI0
aI4
aI0
aa(lp549
I115
aI0
aI0
aI0
aI0
aI16
aI0
aI0
aI59
aI0
aI0
aI9
aI0
aI9
aI114
aI0
aI0
aI0
aI0
aI3
aI0
aI9
aI0
aI0
aI1
aI0
aI0
aI0
aI0
aI0
aI0
aI0
aI0
aa(lp550
I14
aI0
aI0
aI0
aI0
aI39
aI2
aI0
aI61
aI0
aI0
aI0
aI0
aI4
aI36
aI0
aI0
aI1
aI0
aI1
aI0
aI0
aI46
aI0
aI0
aI0
aI0
aI17
aI0
aI0
aI1
aI0
aI0
aa(lp551
I56
aI257
aI420
aI167
aI1476
aI78
aI219
aI540
aI17
aI161
aI326
aI599
aI864
aI519
aI39
aI295
aI46
aI702
aI334
aI21
aI6
aI80
aI10
aI152
aI304
aI48
aI0
aI0
aI0
aI0
aI3
aI2
aI0
aa(lp552
I389
aI0
aI0
aI0
aI27
aI64
aI0
aI0
aI118
aI0
aI13
aI0
aI0
aI2
aI0
aI0
aI0
aI0
aI0
aI20
aI0
aI0
aI0
aI0
aI0
aI0
aI0
aI0
aI0
aI0
aI0
aI0
aI0
aa(lp553
I8
aI0
aI0
aI0
aI0
aI1
aI0
aI0
aI16
aI0
aI14
aI3
aI0
aI0
aI0
aI0
aI0
aI0
aI0
aI0
aI0
aI0
aI0
aI0
aI0
aI0
aI0
aI0
aI0
aI0
aI0
aI0
aI0
aa(lp554
I49
aI243
aI406
aI140
aI298
aI95
aI40
aI213
aI83
aI26
aI510
aI509
aI236
aI392
aI67
aI143
aI57
aI394
aI530
aI4
aI5
aI97
aI44
aI205
aI318
aI30
aI0
aI0
aI0
aI0
aI36
aI199
aI0
aa(lp555
I0
aI0
aI0
aI0
aI0
aI0
aI0
aI0
aI0
aI0
aI0
aI0
aI0
aI0
aI0
aI0
aI0
aI0
aI0
aI0
aI0
aI0
aI0
aI0
aI0
aI0
aI0
aI0
aI0
aI0
aI0
aI0
aI0
aa(lp556
I130
aI0
aI2
aI0
aI0
aI21
aI0
aI0
aI48
aI0
aI0
aI2
aI0
aI49
aI74
aI0
aI0
aI0
aI0
aI38
aI0
aI0
aI0
aI0
aI0
aI0
aI0
aI0
aI0
aI0
aI0
aI0
aI0
aa(lp557
I29
aI0
aI0
aI0
aI0
aI5
aI0
aI0
aI29
aI0
aI0
aI0
aI0
aI0
aI33
aI0
aI0
aI0
aI0
aI9
aI0
aI0
aI0
aI0
aI0
aI0
aI0
aI11
aI1
aI0
aI1
aI1
aI0
aa(lp558
I260
aI0
aI0
aI0
aI0
aI101
aI0
aI0
aI171
aI0
aI0
aI1
aI0
aI0
aI147
aI1
aI0
aI0
aI0
aI59
aI0
aI0
aI0
aI0
aI0
aI0
aI0
aI39
aI0
aI0
aI0
aI3
aI0
aa(lp559
I56
aI0
aI0
aI0
aI0
aI148
aI0
aI0
aI60
aI0
aI0
aI0
aI0
aI0
aI345
aI0
aI0
aI1
aI0
aI649
aI0
aI0
aI0
aI0
aI0
aI0
aI0
aI202
aI0
aI0
aI5
aI67
aI0
aa(lp560
I7
aI510
aI1289
aI463
aI744
aI216
aI280
aI118
aI428
aI273
aI226
aI184
aI660
aI571
aI4
aI198
aI48
aI1541
aI622
aI36
aI85
aI167
aI62
aI302
aI503
aI66
aI0
aI0
aI0
aI7
aI19
aI116
aI0
aa(lp561
I8
aI0
aI0
aI0
aI0
aI55
aI0
aI0
aI9
aI0
aI0
aI4
aI0
aI3
aI3
aI0
aI2
aI0
aI0
aI133
aI0
aI0
aI0
aI0
aI0
aI0
aI0
aI1
aI0
aI0
aI0
aI0
aI0
aa(lp562
I21
aI0
aI0
aI0
aI0
aI9
aI0
aI0
aI36
aI0
aI1
aI0
aI0
aI0
aI12
aI0
aI0
aI0
aI0
aI1
aI0
aI0
aI0
aI0
aI0
aI0
aI0
aI4
aI0
aI0
aI0
aI0
aI0
aa(lp563
I15
aI0
aI0
aI0
aI0
aI11
aI0
aI0
aI28
aI0
aI76
aI0
aI0
aI0
aI30
aI4
aI0
aI0
aI74
aI3
aI0
aI0
aI0
aI0
aI0
aI0
aI0
aI3
aI0
aI0
aI0
aI5
aI0
aa(lp564
I121
aI0
aI61
aI0
aI0
aI76
aI1
aI1
aI183
aI0
aI18
aI0
aI0
aI58
aI378
aI1
aI9
aI7
aI0
aI69
aI5
aI0
aI1
aI0
aI0
aI0
aI0
aI65
aI53
aI0
aI0
aI7
aI0
aa(lp565
I0
aI150
aI2
aI716
aI316
aI30
aI626
aI197
aI13
aI5
aI656
aI63
aI51
aI20
aI0
aI90
aI9
aI76
aI107
aI0
aI0
aI70
aI0
aI136
aI92
aI2
aI0
aI0
aI0
aI0
aI101
aI13
aI0
aa(lp566
I1
aI0
aI0
aI0
aI0
aI2
aI0
aI0
aI5
aI0
aI0
aI0
aI0
aI0
aI1
aI0
aI0
aI0
aI0
aI0
aI0
aI0
aI0
aI0
aI0
aI0
aI0
aI0
aI1
aI0
aI0
aI1
aI0
aa(lp567
I10
aI0
aI0
aI0
aI0
aI0
aI0
aI1
aI15
aI0
aI0
aI0
aI0
aI49
aI7
aI0
aI0
aI4
aI0
aI58
aI0
aI0
aI1
aI1
aI0
aI0
aI1
aI0
aI0
aI0
aI0
aI0
aI0
aa(lp568
I14
aI0
aI0
aI0
aI0
aI7
aI0
aI0
aI30
aI0
aI0
aI0
aI0
aI0
aI3
aI0
aI0
aI0
aI0
aI9
aI0
aI0
aI0
aI0
aI0
aI0
aI0
aI2
aI0
aI0
aI0
aI0
aI0
aa(lp569
I97
aI0
aI0
aI0
aI0
aI24
aI0
aI0
aI34
aI0
aI0
aI0
aI0
aI0
aI1
aI0
aI0
aI0
aI0
aI3
aI0
aI0
aI0
aI0
aI0
aI0
aI0
aI0
aI0
aI0
aI0
aI0
aI0
aa(lp570
I26
aI0
aI0
aI0
aI0
aI139
aI0
aI0
aI79
aI0
aI6
aI1
aI0
aI9
aI4
aI0
aI13
aI0
aI0
aI3
aI0
aI0
aI0
aI0
aI0
aI0
aI0
aI0
aI1
aI0
aI0
aI0
aI0
aa(lp571
I0
aI0
aI0
aI0
aI0
aI0
aI0
aI0
aI28
aI0
aI0
aI0
aI0
aI0
aI0
aI0
aI0
aI0
aI0
aI0
aI0
aI0
aI0
aI0
aI0
aI0
aI0
aI0
aI0
aI0
aI0
aI0
aI0
aa(lp572
I0
aI0
aI0
aI0
aI0
aI0
aI0
aI0
aI0
aI0
aI0
aI0
aI0
aI0
aI0
aI0
aI0
aI0
aI0
aI0
aI0
aI0
aI0
aI0
aI0
aI0
aI0
aI0
aI0
aI0
aI0
aI0
aI0
aa(lp573
I0
aI10
aI323
aI79
aI3
aI217
aI20
aI38
aI0
aI202
aI9
aI306
aI83
aI9
aI0
aI2
aI0
aI77
aI253
aI0
aI0
aI76
aI0
aI54
aI86
aI0
aI0
aI0
aI0
aI0
aI0
aI0
aI0
aa(lp574
I0
aI9
aI0
aI0
aI0
aI73
aI0
aI0
aI0
aI0
aI11
aI0
aI63
aI0
aI0
aI0
aI0
aI0
aI5
aI0
aI0
aI0
aI0
aI0
aI0
aI0
aI0
aI0
aI0
aI0
aI34
aI3
aI0
aa(lp575
I0
aI0
aI0
aI0
aI0
aI0
aI0
aI0
aI0
aI0
aI0
aI0
aI0
aI0
aI0
aI0
aI0
aI17
aI0
aI0
aI0
aI1
aI0
aI0
aI0
aI0
aI0
aI0
aI0
aI0
aI0
aI0
aI0
aa(lp576
I0
aI0
aI0
aI4
aI0
aI1
aI0
aI0
aI0
aI3
aI37
aI0
aI26
aI0
aI0
aI0
aI0
aI11
aI0
aI0
aI0
aI5
aI0
aI23
aI7
aI0
aI0
aI0
aI0
aI0
aI0
aI0
aI0
aa(lp577
I0
aI3
aI37
aI15
aI410
aI20
aI95
aI48
aI0
aI3
aI11
aI87
aI168
aI67
aI0
aI9
aI0
aI69
aI174
aI0
aI0
aI71
aI2
aI52
aI2
aI15
aI0
aI0
aI0
aI0
aI31
aI14
aI0
aa(lp578
I0
aI0
aI0
aI0
aI0
aI0
aI0
aI0
aI0
aI0
aI0
aI0
aI0
aI0
aI0
aI0
aI0
aI0
aI0
aI0
aI0
aI0
aI0
aI0
aI0
aI0
aI0
aI0
aI0
aI0
aI0
aI0
aI0
aaa(lp579
(lp580
I0
aI6
aI25
aI0
aI162
aI20
aI37
aI0
aI0
aI3
aI10
aI93
aI718
aI66
aI0
aI32
aI7
aI3
aI69
aI2
aI1
aI26
aI0
aI6
aI0
aI0
aI0
aI0
aI0
aI0
aI20
aI14
aI0
aa(lp581
I2
aI0
aI0
aI0
aI0
aI27
aI0
aI0
aI28
aI0
aI0
aI0
aI0
aI0
aI21
aI0
aI35
aI0
aI0
aI0
aI0
aI0
aI0
aI0
aI0
aI0
aI0
aI1
aI0
aI0
aI0
aI0
aI0
aa(lp582
I46
aI0
aI0
aI0
aI0
aI499
aI0
aI0
aI186
aI0
aI0
aI0
aI0
aI0
aI980
aI0
aI0
aI0
aI0
aI0
aI0
aI0
aI0
aI0
aI0
aI0
aI0
aI3
aI0
aI0
aI0
aI126
aI0
aa(lp583
I0
aI0
aI0
aI0
aI0
aI0
aI0
aI0
aI3
aI0
aI0
aI2
aI0
aI1
aI12
aI0
aI12
aI0
aI0
aI5
aI0
aI0
aI0
aI0
aI0
aI0
aI0
aI0
aI0
aI0
aI0
aI0
aI0
aa(lp584
I45
aI0
aI6
aI0
aI0
aI372
aI0
aI0
aI3
aI0
aI0
aI0
aI0
aI0
aI5
aI0
aI0
aI0
aI0
aI5
aI0
aI0
aI0
aI0
aI0
aI0
aI0
aI0
aI0
aI0
aI0
aI0
aI0
aa(lp585
I4
aI516
aI29
aI278
aI111
aI1
aI0
aI3
aI5
aI273
aI207
aI262
aI362
aI99
aI6
aI7
aI418
aI23
aI67
aI0
aI0
aI154
aI0
aI12
aI5
aI6
aI0
aI0
aI0
aI0
aI0
aI16
aI0
aa(lp586
I28
aI0
aI0
aI0
aI0
aI4
aI0
aI0
aI22
aI0
aI0
aI0
aI0
aI0
aI0
aI0
aI0
aI0
aI0
aI0
aI0
aI0
aI0
aI0
aI0
aI0
aI0
aI0
aI0
aI0
aI0
aI0
aI0
aa(lp587
I38
aI0
aI0
aI0
aI0
aI0
aI0
aI0
aI0
aI0
aI0
aI0
aI0
aI0
aI0
aI0
aI0
aI0
aI0
aI0
aI0
aI0
aI0
aI0
aI0
aI0
aI0
aI0
aI0
aI0
aI0
aI0
aI0
aa(lp588
I11
aI69
aI83
aI155
aI160
aI9
aI11
aI1
aI17
aI3
aI18
aI841
aI48
aI32
aI21
aI29
aI69
aI61
aI186
aI0
aI3
aI49
aI6
aI3
aI4
aI1
aI0
aI0
aI0
aI0
aI5
aI37
aI0
aa(lp589
I0
aI0
aI0
aI0
aI0
aI0
aI0
aI0
aI0
aI0
aI0
aI0
aI0
aI0
aI0
aI0
aI0
aI0
aI0
aI0
aI0
aI0
aI0
aI0
aI0
aI0
aI0
aI0
aI0
aI0
aI0
aI0
aI0
aa(lp590
I1306
aI0
aI91
aI0
aI0
aI28
aI0
aI0
aI766
aI0
aI0
aI171
aI0
aI20
aI1457
aI0
aI301
aI0
aI0
aI229
aI0
aI0
aI0
aI0
aI0
aI0
aI0
aI0
aI3
aI0
aI0
aI0
aI0
aa(lp591
I298
aI0
aI0
aI0
aI0
aI1105
aI0
aI0
aI874
aI0
aI0
aI0
aI0
aI0
aI794
aI0
aI0
aI0
aI0
aI631
aI0
aI0
aI0
aI0
aI0
aI0
aI0
aI268
aI53
aI26
aI9
aI27
aI0
aa(lp592
I75
aI0
aI0
aI0
aI0
aI292
aI0
aI0
aI56
aI0
aI0
aI0
aI0
aI0
aI528
aI0
aI1
aI0
aI0
aI19
aI0
aI0
aI0
aI0
aI0
aI0
aI0
aI69
aI0
aI0
aI0
aI11
aI0
aa(lp593
I219
aI0
aI0
aI0
aI0
aI72
aI0
aI0
aI204
aI0
aI0
aI0
aI0
aI0
aI675
aI0
aI0
aI0
aI0
aI145
aI0
aI0
aI0
aI0
aI0
aI0
aI0
aI123
aI1
aI0
aI10
aI108
aI0
aa(lp594
I0
aI582
aI656
aI102
aI53
aI34
aI28
aI151
aI5
aI39
aI138
aI322
aI230
aI76
aI221
aI73
aI108
aI205
aI85
aI4
aI11
aI29
aI12
aI59
aI16
aI2
aI0
aI0
aI0
aI0
aI18
aI0
aI0
aa(lp595
I346
aI0
aI0
aI0
aI0
aI460
aI0
aI0
aI272
aI0
aI0
aI82
aI0
aI0
aI762
aI0
aI445
aI0
aI0
aI176
aI0
aI0
aI0
aI0
aI0
aI0
aI0
aI86
aI0
aI0
aI0
aI13
aI0
aa(lp596
I243
aI0
aI0
aI0
aI0
aI154
aI0
aI0
aI1
aI0
aI0
aI0
aI0
aI0
aI38
aI0
aI0
aI0
aI0
aI1
aI0
aI0
aI0
aI0
aI0
aI0
aI0
aI9
aI0
aI0
aI0
aI0
aI0
aa(lp597
I48
aI0
aI50
aI0
aI0
aI55
aI0
aI0
aI105
aI0
aI115
aI49
aI44
aI11
aI70
aI5
aI1
aI0
aI146
aI39
aI0
aI0
aI0
aI33
aI0
aI0
aI0
aI29
aI0
aI0
aI0
aI25
aI0
aa(lp598
I3030
aI1
aI2008
aI1
aI0
aI935
aI0
aI0
aI1572
aI0
aI56
aI44
aI15
aI448
aI2557
aI0
aI1700
aI38
aI0
aI591
aI0
aI0
aI0
aI1
aI0
aI0
aI0
aI204
aI1371
aI0
aI39
aI158
aI0
aa(lp599
I4
aI11
aI4
aI3
aI230
aI38
aI43
aI2
aI0
aI2
aI2
aI17
aI144
aI108
aI0
aI6
aI17
aI8
aI101
aI0
aI0
aI18
aI0
aI5
aI24
aI147
aI0
aI0
aI0
aI0
aI6
aI0
aI0
aa(lp600
I2
aI0
aI0
aI0
aI0
aI23
aI0
aI0
aI0
aI0
aI0
aI0
aI0
aI0
aI26
aI0
aI1
aI0
aI0
aI0
aI0
aI0
aI0
aI0
aI0
aI0
aI0
aI0
aI0
aI0
aI0
aI0
aI0
aa(lp601
I5
aI0
aI132
aI0
aI0
aI12
aI0
aI0
aI20
aI0
aI0
aI4
aI0
aI0
aI145
aI0
aI1
aI0
aI0
aI0
aI0
aI0
aI0
aI0
aI0
aI0
aI0
aI0
aI0
aI0
aI0
aI0
aI0
aa(lp602
I6
aI0
aI10
aI0
aI0
aI22
aI0
aI0
aI4
aI0
aI0
aI0
aI0
aI0
aI0
aI0
aI0
aI0
aI0
aI0
aI0
aI0
aI0
aI0
aI0
aI0
aI0
aI1
aI0
aI0
aI0
aI0
aI0
aa(lp603
I91
aI0
aI0
aI0
aI0
aI231
aI0
aI0
aI145
aI0
aI0
aI1
aI0
aI0
aI2
aI0
aI0
aI0
aI0
aI23
aI0
aI0
aI0
aI0
aI0
aI0
aI0
aI0
aI0
aI0
aI0
aI0
aI0
aa(lp604
I3
aI0
aI0
aI0
aI0
aI33
aI0
aI0
aI39
aI0
aI0
aI0
aI0
aI0
aI0
aI0
aI0
aI0
aI4
aI38
aI0
aI0
aI0
aI0
aI0
aI0
aI0
aI0
aI0
aI0
aI0
aI0
aI0
aa(lp605
I0
aI0
aI0
aI0
aI0
aI0
aI0
aI0
aI0
aI0
aI0
aI0
aI0
aI0
aI0
aI0
aI0
aI0
aI0
aI0
aI0
aI0
aI0
aI0
aI0
aI0
aI0
aI0
aI0
aI0
aI0
aI0
aI0
aa(lp606
I0
aI0
aI0
aI0
aI0
aI36
aI0
aI0
aI0
aI0
aI0
aI0
aI0
aI0
aI0
aI0
aI0
aI0
aI0
aI0
aI0
aI0
aI0
aI0
aI0
aI0
aI0
aI0
aI0
aI0
aI0
aI1
aI0
aa(lp607
I0
aI0
aI59
aI9
aI0
aI3
aI0
aI0
aI0
aI5
aI0
aI16
aI1
aI11
aI0
aI65
aI4
aI0
aI7
aI0
aI0
aI0
aI0
aI0
aI0
aI4
aI0
aI0
aI0
aI0
aI0
aI0
aI0
aa(lp608
I0
aI11
aI0
aI0
aI0
aI6
aI0
aI0
aI0
aI0
aI45
aI0
aI72
aI0
aI0
aI0
aI0
aI0
aI0
aI0
aI0
aI0
aI0
aI0
aI0
aI0
aI0
aI0
aI0
aI0
aI26
aI0
aI0
aa(lp609
I0
aI0
aI0
aI0
aI0
aI0
aI0
aI0
aI0
aI0
aI1
aI0
aI0
aI0
aI0
aI0
aI168
aI0
aI0
aI0
aI0
aI0
aI0
aI0
aI0
aI0
aI0
aI0
aI0
aI0
aI0
aI0
aI0
aa(lp610
I0
aI0
aI0
aI0
aI191
aI0
aI1
aI0
aI0
aI0
aI0
aI0
aI0
aI0
aI0
aI0
aI4
aI0
aI0
aI0
aI0
aI0
aI0
aI0
aI0
aI0
aI0
aI0
aI0
aI0
aI0
aI0
aI0
aa(lp611
I0
aI0
aI1
aI3
aI9
aI0
aI0
aI1
aI0
aI0
aI134
aI0
aI1
aI1
aI0
aI0
aI0
aI2
aI132
aI0
aI0
aI0
aI37
aI81
aI0
aI7
aI0
aI0
aI0
aI0
aI0
aI0
aI0
aa(lp612
I0
aI0
aI0
aI0
aI0
aI0
aI0
aI0
aI0
aI0
aI0
aI0
aI0
aI0
aI0
aI0
aI0
aI0
aI0
aI0
aI0
aI0
aI0
aI0
aI0
aI0
aI0
aI0
aI0
aI0
aI0
aI0
aI0
aaa(lp613
(lp614
I0
aI55
aI845
aI12
aI9
aI111
aI58
aI48
aI22
aI68
aI1555
aI1519
aI563
aI836
aI0
aI9
aI409
aI36
aI545
aI0
aI1
aI73
aI30
aI7
aI0
aI147
aI0
aI0
aI0
aI0
aI82
aI158
aI0
aa(lp615
I1
aI0
aI0
aI0
aI0
aI6
aI0
aI0
aI14
aI0
aI0
aI4
aI0
aI0
aI3
aI0
aI13
aI0
aI0
aI1
aI0
aI0
aI0
aI0
aI0
aI0
aI0
aI4
aI0
aI0
aI0
aI0
aI0
aa(lp616
I311
aI0
aI0
aI0
aI0
aI1004
aI0
aI0
aI352
aI0
aI0
aI31
aI0
aI0
aI954
aI0
aI29
aI0
aI0
aI233
aI0
aI0
aI0
aI0
aI0
aI0
aI0
aI28
aI0
aI0
aI0
aI5
aI0
aa(lp617
I0
aI0
aI1
aI0
aI0
aI2
aI0
aI0
aI1
aI0
aI0
aI0
aI0
aI0
aI2
aI0
aI0
aI0
aI0
aI0
aI0
aI0
aI0
aI0
aI0
aI0
aI0
aI0
aI0
aI0
aI0
aI0
aI0
aa(lp618
I77
aI0
aI0
aI0
aI0
aI64
aI0
aI0
aI0
aI0
aI0
aI0
aI0
aI0
aI23
aI0
aI0
aI0
aI0
aI2
aI0
aI0
aI0
aI0
aI0
aI0
aI0
aI29
aI0
aI0
aI0
aI0
aI0
aa(lp619
I15
aI553
aI19
aI47
aI2
aI1
aI38
aI3
aI5
aI93
aI125
aI1971
aI555
aI440
aI31
aI478
aI774
aI241
aI53
aI0
aI0
aI155
aI7
aI48
aI52
aI0
aI0
aI0
aI0
aI0
aI5
aI13
aI0
aa(lp620
I3
aI0
aI0
aI0
aI0
aI0
aI0
aI0
aI3
aI0
aI0
aI0
aI0
aI0
aI0
aI0
aI0
aI0
aI0
aI1
aI0
aI0
aI0
aI0
aI0
aI0
aI0
aI0
aI0
aI0
aI0
aI0
aI0
aa(lp621
I1
aI0
aI0
aI0
aI0
aI0
aI0
aI0
aI0
aI0
aI0
aI0
aI0
aI0
aI0
aI0
aI0
aI0
aI0
aI0
aI0
aI0
aI0
aI0
aI0
aI0
aI0
aI0
aI0
aI0
aI0
aI0
aI0
aa(lp622
I0
aI6
aI418
aI41
aI8
aI73
aI7
aI21
aI14
aI34
aI195
aI1009
aI197
aI204
aI1
aI43
aI230
aI54
aI520
aI0
aI3
aI215
aI65
aI197
aI58
aI2
aI0
aI0
aI0
aI0
aI12
aI107
aI0
aa(lp623
I0
aI0
aI0
aI0
aI0
aI0
aI0
aI0
aI0
aI0
aI0
aI0
aI0
aI0
aI0
aI0
aI0
aI0
aI0
aI0
aI0
aI0
aI0
aI0
aI0
aI0
aI0
aI0
aI0
aI0
aI0
aI0
aI0
aa(lp624
I188
aI0
aI0
aI0
aI0
aI36
aI0
aI0
aI247
aI0
aI0
aI60
aI0
aI68
aI122
aI0
aI277
aI0
aI0
aI165
aI0
aI0
aI0
aI0
aI0
aI0
aI0
aI0
aI0
aI0
aI0
aI0
aI0
aa(lp625
I17
aI0
aI0
aI0
aI0
aI63
aI0
aI0
aI187
aI0
aI0
aI0
aI0
aI0
aI17
aI0
aI0
aI0
aI0
aI1
aI0
aI0
aI0
aI0
aI0
aI0
aI0
aI5
aI8
aI0
aI11
aI28
aI0
aa(lp626
I19
aI0
aI0
aI0
aI0
aI42
aI0
aI0
aI0
aI0
aI0
aI0
aI0
aI0
aI12
aI0
aI0
aI0
aI0
aI0
aI0
aI0
aI0
aI0
aI0
aI0
aI0
aI47
aI0
aI0
aI0
aI0
aI0
aa(lp627
I66
aI0
aI0
aI0
aI0
aI27
aI0
aI0
aI193
aI0
aI0
aI0
aI0
aI0
aI800
aI0
aI0
aI0
aI0
aI92
aI0
aI0
aI0
aI0
aI0
aI0
aI0
aI335
aI0
aI0
aI9
aI13
aI0
aa(lp628
I1
aI843
aI662
aI677
aI32
aI37
aI221
aI8
aI145
aI437
aI178
aI1554
aI1422
aI408
aI1
aI103
aI1993
aI24
aI433
aI0
aI20
aI7
aI8
aI335
aI44
aI9
aI0
aI0
aI0
aI1
aI2
aI466
aI0
aa(lp629
I5
aI0
aI0
aI0
aI0
aI21
aI0
aI0
aI6
aI0
aI0
aI6
aI0
aI0
aI4
aI0
aI153
aI0
aI0
aI54
aI0
aI0
aI0
aI0
aI0
aI0
aI0
aI0
aI0
aI0
aI0
aI1
aI0
aa(lp630
I780
aI0
aI0
aI0
aI0
aI1080
aI0
aI0
aI345
aI0
aI0
aI0
aI0
aI0
aI950
aI0
aI2
aI0
aI0
aI462
aI0
aI0
aI0
aI0
aI0
aI0
aI0
aI54
aI42
aI0
aI16
aI180
aI0
aa(lp631
I1
aI0
aI1
aI0
aI0
aI11
aI0
aI0
aI12
aI0
aI115
aI1
aI1
aI1
aI14
aI0
aI2
aI0
aI253
aI33
aI0
aI0
aI0
aI7
aI0
aI0
aI0
aI1
aI0
aI0
aI65
aI1405
aI0
aa(lp632
I18
aI0
aI0
aI0
aI0
aI12
aI0
aI0
aI2
aI0
aI0
aI0
aI0
aI0
aI18
aI0
aI1
aI0
aI0
aI34
aI0
aI0
aI0
aI0
aI0
aI0
aI0
aI1
aI0
aI0
aI0
aI0
aI0
aa(lp633
I43
aI0
aI0
aI10
aI151
aI7
aI1
aI52
aI3
aI2
aI95
aI44
aI37
aI31
aI1
aI422
aI101
aI16
aI456
aI0
aI8
aI9
aI0
aI85
aI19
aI8
aI0
aI0
aI0
aI0
aI72
aI6
aI0
aa(lp634
I14
aI0
aI0
aI0
aI0
aI4
aI0
aI0
aI0
aI0
aI0
aI0
aI0
aI0
aI9
aI0
aI0
aI0
aI0
aI0
aI0
aI0
aI0
aI0
aI0
aI0
aI0
aI1
aI0
aI0
aI0
aI0
aI0
aa(lp635
I0
aI0
aI3
aI0
aI0
aI0
aI0
aI0
aI1
aI0
aI0
aI12
aI0
aI0
aI8
aI0
aI0
aI0
aI0
aI0
aI0
aI0
aI0
aI0
aI0
aI0
aI0
aI0
aI0
aI0
aI0
aI0
aI0
aa(lp636
I12
aI1
aI0
aI0
aI0
aI4
aI0
aI0
aI0
aI0
aI0
aI0
aI0
aI0
aI1
aI0
aI0
aI0
aI0
aI1
aI0
aI0
aI0
aI0
aI0
aI0
aI0
aI1
aI0
aI0
aI0
aI0
aI0
aa(lp637
I54
aI0
aI0
aI0
aI0
aI40
aI0
aI0
aI64
aI0
aI0
aI0
aI0
aI0
aI0
aI0
aI0
aI0
aI0
aI0
aI0
aI0
aI0
aI0
aI0
aI0
aI0
aI0
aI0
aI0
aI0
aI0
aI0
aa(lp638
I6
aI0
aI8
aI0
aI0
aI1
aI0
aI0
aI2
aI0
aI0
aI0
aI0
aI0
aI0
aI0
aI0
aI0
aI0
aI1
aI0
aI0
aI0
aI0
aI0
aI0
aI0
aI0
aI0
aI0
aI0
aI0
aI0
aa(lp639
I32
aI0
aI0
aI0
aI0
aI3
aI0
aI0
aI0
aI0
aI0
aI0
aI0
aI0
aI0
aI0
aI0
aI0
aI0
aI0
aI0
aI0
aI0
aI0
aI0
aI0
aI0
aI0
aI0
aI0
aI0
aI0
aI0
aa(lp640
I0
aI0
aI0
aI0
aI0
aI9
aI0
aI0
aI0
aI0
aI0
aI0
aI0
aI0
aI0
aI0
aI0
aI0
aI0
aI0
aI0
aI0
aI0
aI0
aI0
aI0
aI0
aI0
aI0
aI0
aI0
aI1
aI0
aa(lp641
I0
aI0
aI150
aI1
aI16
aI78
aI0
aI0
aI0
aI135
aI19
aI101
aI89
aI15
aI0
aI0
aI66
aI110
aI0
aI0
aI0
aI50
aI0
aI12
aI2
aI8
aI0
aI0
aI0
aI0
aI0
aI0
aI0
aa(lp642
I0
aI1
aI0
aI0
aI13
aI69
aI0
aI0
aI3
aI0
aI1
aI0
aI16
aI0
aI0
aI0
aI0
aI1328
aI4
aI0
aI3
aI0
aI0
aI0
aI0
aI0
aI0
aI0
aI0
aI0
aI219
aI52
aI0
aa(lp643
I0
aI0
aI0
aI0
aI0
aI0
aI0
aI0
aI0
aI0
aI0
aI0
aI0
aI0
aI0
aI0
aI0
aI0
aI0
aI0
aI0
aI0
aI0
aI0
aI0
aI0
aI0
aI0
aI0
aI0
aI0
aI0
aI0
aa(lp644
I1
aI3
aI0
aI0
aI0
aI0
aI0
aI0
aI0
aI0
aI5
aI1
aI37
aI0
aI0
aI0
aI82
aI0
aI0
aI0
aI1
aI0
aI0
aI0
aI2
aI0
aI0
aI0
aI0
aI32
aI0
aI0
aI0
aa(lp645
I0
aI0
aI0
aI60
aI0
aI0
aI124
aI6
aI0
aI0
aI28
aI0
aI49
aI201
aI0
aI0
aI0
aI3
aI76
aI0
aI0
aI14
aI1
aI0
aI4
aI43
aI0
aI0
aI0
aI0
aI0
aI0
aI0
aa(lp646
I0
aI0
aI0
aI0
aI0
aI0
aI0
aI0
aI0
aI0
aI0
aI0
aI0
aI0
aI0
aI0
aI0
aI0
aI0
aI0
aI0
aI0
aI0
aI0
aI0
aI0
aI0
aI0
aI0
aI0
aI0
aI0
aI0
aaa(lp647
(lp648
I0
aI0
aI0
aI0
aI0
aI0
aI0
aI0
aI0
aI0
aI1
aI43
aI0
aI1
aI0
aI0
aI12
aI0
aI0
aI0
aI0
aI0
aI27
aI0
aI0
aI0
aI0
aI0
aI0
aI0
aI0
aI0
aI0
aa(lp649
I107
aI1
aI0
aI0
aI0
aI133
aI6
aI0
aI264
aI0
aI39
aI34
aI0
aI17
aI112
aI0
aI26
aI1
aI1
aI20
aI0
aI0
aI1
aI2
aI0
aI0
aI8
aI116
aI24
aI0
aI0
aI2
aI0
aa(lp650
I26
aI0
aI0
aI0
aI0
aI123
aI0
aI0
aI199
aI0
aI0
aI11
aI0
aI1
aI28
aI0
aI0
aI229
aI0
aI0
aI0
aI0
aI0
aI0
aI105
aI0
aI0
aI25
aI3
aI0
aI0
aI4
aI0
aa(lp651
I181
aI0
aI0
aI1
aI0
aI14
aI0
aI0
aI145
aI0
aI0
aI72
aI0
aI18
aI353
aI0
aI49
aI0
aI0
aI64
aI0
aI0
aI0
aI0
aI0
aI0
aI0
aI0
aI0
aI0
aI0
aI0
aI0
aa(lp652
I753
aI0
aI2
aI0
aI0
aI495
aI0
aI0
aI220
aI0
aI21
aI2
aI0
aI153
aI283
aI0
aI43
aI1
aI71
aI212
aI0
aI0
aI0
aI0
aI3
aI0
aI0
aI9
aI119
aI0
aI0
aI34
aI0
aa(lp653
I0
aI0
aI1
aI0
aI9
aI0
aI0
aI3
aI0
aI3
aI0
aI0
aI50
aI0
aI0
aI0
aI0
aI0
aI218
aI0
aI0
aI6
aI0
aI0
aI10
aI0
aI0
aI0
aI0
aI0
aI0
aI0
aI0
aa(lp654
I151
aI40
aI0
aI0
aI96
aI783
aI17
aI0
aI389
aI0
aI47
aI3
aI0
aI206
aI17
aI0
aI0
aI10
aI1
aI29
aI0
aI0
aI0
aI41
aI0
aI0
aI0
aI0
aI55
aI0
aI0
aI0
aI0
aa(lp655
I10
aI0
aI0
aI0
aI1
aI45
aI0
aI0
aI80
aI0
aI35
aI3
aI0
aI157
aI103
aI0
aI0
aI10
aI0
aI3
aI0
aI0
aI0
aI4
aI0
aI0
aI0
aI36
aI17
aI0
aI0
aI2
aI0
aa(lp656
I0
aI0
aI0
aI0
aI0
aI0
aI0
aI4
aI0
aI0
aI0
aI3
aI0
aI0
aI0
aI0
aI5
aI0
aI0
aI0
aI0
aI0
aI2
aI0
aI0
aI0
aI0
aI0
aI0
aI0
aI0
aI0
aI0
aa(lp657
I0
aI0
aI0
aI0
aI20
aI0
aI0
aI0
aI0
aI0
aI3
aI0
aI4
aI0
aI0
aI0
aI0
aI28
aI39
aI0
aI0
aI0
aI0
aI0
aI0
aI0
aI0
aI0
aI0
aI0
aI0
aI0
aI0
aa(lp658
I290
aI0
aI18
aI0
aI0
aI74
aI0
aI0
aI176
aI0
aI0
aI24
aI0
aI18
aI157
aI0
aI87
aI7
aI42
aI172
aI0
aI0
aI15
aI0
aI0
aI0
aI0
aI0
aI0
aI0
aI0
aI0
aI0
aa(lp659
I375
aI0
aI0
aI0
aI0
aI62
aI0
aI0
aI468
aI0
aI35
aI0
aI0
aI0
aI172
aI0
aI0
aI567
aI5
aI31
aI0
aI0
aI0
aI0
aI0
aI0
aI0
aI199
aI200
aI0
aI8
aI96
aI0
aa(lp660
I583
aI4
aI0
aI0
aI0
aI320
aI0
aI0
aI33
aI0
aI48
aI20
aI27
aI118
aI38
aI4
aI25
aI5
aI0
aI15
aI2
aI0
aI3
aI18
aI0
aI0
aI0
aI48
aI4
aI0
aI0
aI25
aI0
aa(lp661
I17
aI0
aI0
aI10
aI197
aI14
aI0
aI0
aI102
aI0
aI35
aI0
aI0
aI23
aI24
aI0
aI0
aI1
aI10
aI86
aI0
aI0
aI1
aI1
aI0
aI0
aI0
aI18
aI1
aI0
aI0
aI3
aI0
aa(lp662
I0
aI0
aI0
aI0
aI0
aI0
aI0
aI1
aI0
aI0
aI1
aI0
aI0
aI0
aI0
aI0
aI0
aI0
aI1
aI0
aI0
aI0
aI0
aI0
aI0
aI0
aI0
aI0
aI0
aI0
aI0
aI0
aI0
aa(lp663
I200
aI0
aI0
aI0
aI0
aI37
aI0
aI0
aI151
aI0
aI15
aI91
aI0
aI131
aI106
aI26
aI159
aI0
aI1
aI18
aI0
aI0
aI1
aI1
aI0
aI0
aI0
aI42
aI10
aI0
aI9
aI4
aI0
aa(lp664
I168
aI11
aI9
aI95
aI2
aI44
aI0
aI0
aI65
aI0
aI27
aI0
aI20
aI53
aI122
aI3
aI1
aI47
aI22
aI37
aI0
aI0
aI0
aI20
aI9
aI0
aI0
aI35
aI4
aI0
aI4
aI3
aI0
aa(lp665
I74
aI0
aI10
aI0
aI0
aI60
aI0
aI0
aI93
aI0
aI207
aI146
aI30
aI51
aI73
aI236
aI0
aI33
aI849
aI16
aI0
aI0
aI0
aI0
aI0
aI0
aI0
aI34
aI98
aI0
aI0
aI3
aI0
aa(lp666
I88
aI0
aI25
aI1
aI0
aI87
aI0
aI0
aI149
aI0
aI90
aI17
aI0
aI46
aI118
aI0
aI203
aI142
aI3
aI41
aI14
aI0
aI20
aI4
aI0
aI0
aI0
aI130
aI469
aI0
aI0
aI6
aI0
aa(lp667
I0
aI0
aI0
aI0
aI0
aI0
aI0
aI0
aI0
aI0
aI0
aI0
aI13
aI0
aI0
aI0
aI0
aI1
aI0
aI0
aI0
aI0
aI0
aI0
aI0
aI0
aI0
aI0
aI0
aI0
aI0
aI0
aI0
aa(lp668
I0
aI0
aI0
aI0
aI0
aI4
aI0
aI0
aI0
aI0
aI0
aI10
aI0
aI0
aI0
aI0
aI0
aI0
aI0
aI0
aI1
aI0
aI0
aI0
aI0
aI0
aI0
aI0
aI0
aI0
aI0
aI0
aI0
aa(lp669
I59
aI0
aI33
aI1
aI1
aI32
aI0
aI0
aI36
aI0
aI3
aI10
aI27
aI85
aI151
aI0
aI0
aI4
aI11
aI15
aI0
aI0
aI0
aI0
aI3
aI0
aI0
aI0
aI0
aI0
aI0
aI0
aI0
aa(lp670
I0
aI0
aI0
aI0
aI0
aI7
aI0
aI0
aI2
aI0
aI0
aI0
aI0
aI0
aI0
aI0
aI0
aI0
aI0
aI0
aI0
aI0
aI0
aI0
aI0
aI0
aI0
aI0
aI0
aI0
aI0
aI0
aI0
aa(lp671
I430
aI0
aI0
aI0
aI0
aI127
aI0
aI0
aI410
aI0
aI94
aI3
aI0
aI59
aI5
aI0
aI0
aI0
aI6
aI31
aI0
aI0
aI0
aI0
aI250
aI0
aI0
aI0
aI6
aI0
aI0
aI0
aI0
aa(lp672
I151
aI0
aI0
aI0
aI0
aI155
aI0
aI0
aI179
aI0
aI173
aI26
aI0
aI39
aI4
aI0
aI0
aI0
aI1
aI15
aI0
aI0
aI0
aI0
aI0
aI0
aI0
aI0
aI16
aI0
aI0
aI0
aI0
aa(lp673
I20
aI0
aI0
aI0
aI0
aI276
aI0
aI0
aI53
aI0
aI0
aI0
aI0
aI3
aI1
aI0
aI0
aI0
aI0
aI13
aI0
aI0
aI0
aI0
aI0
aI0
aI0
aI0
aI0
aI0
aI0
aI0
aI0
aa(lp674
I0
aI0
aI0
aI0
aI0
aI0
aI0
aI0
aI0
aI0
aI0
aI0
aI0
aI0
aI0
aI0
aI0
aI0
aI0
aI0
aI0
aI0
aI0
aI0
aI0
aI0
aI0
aI0
aI0
aI0
aI0
aI0
aI0
aa(lp675
I0
aI0
aI0
aI0
aI0
aI0
aI0
aI0
aI0
aI0
aI0
aI0
aI0
aI0
aI0
aI0
aI0
aI0
aI0
aI0
aI0
aI0
aI0
aI0
aI0
aI0
aI0
aI0
aI0
aI0
aI0
aI0
aI0
aa(lp676
I0
aI0
aI0
aI0
aI0
aI0
aI0
aI0
aI0
aI0
aI0
aI0
aI0
aI0
aI0
aI0
aI0
aI0
aI0
aI0
aI0
aI0
aI0
aI0
aI0
aI0
aI0
aI0
aI0
aI0
aI0
aI0
aI0
aa(lp677
I0
aI0
aI0
aI0
aI0
aI0
aI0
aI0
aI0
aI0
aI0
aI0
aI0
aI0
aI0
aI0
aI0
aI0
aI4
aI0
aI0
aI0
aI0
aI0
aI0
aI0
aI0
aI0
aI0
aI0
aI0
aI0
aI0
aa(lp678
I0
aI0
aI0
aI0
aI0
aI0
aI0
aI0
aI0
aI0
aI0
aI0
aI0
aI0
aI0
aI0
aI0
aI25
aI63
aI0
aI0
aI0
aI0
aI0
aI0
aI191
aI0
aI0
aI0
aI0
aI0
aI0
aI0
aa(lp679
I0
aI0
aI0
aI0
aI0
aI0
aI0
aI3
aI0
aI0
aI0
aI6
aI2
aI0
aI0
aI0
aI0
aI15
aI1
aI0
aI0
aI1
aI0
aI0
aI0
aI0
aI0
aI0
aI0
aI0
aI0
aI0
aI0
aa(lp680
I0
aI0
aI0
aI0
aI0
aI0
aI0
aI0
aI0
aI0
aI0
aI0
aI0
aI0
aI0
aI0
aI0
aI0
aI0
aI0
aI0
aI0
aI0
aI0
aI0
aI0
aI0
aI0
aI0
aI0
aI0
aI0
aI0
aaa(lp681
(lp682
I0
aI7
aI1
aI0
aI0
aI0
aI0
aI2
aI0
aI10
aI46
aI17
aI10
aI48
aI0
aI0
aI27
aI5
aI2
aI5
aI0
aI2
aI0
aI0
aI0
aI0
aI0
aI0
aI0
aI1
aI0
aI0
aI0
aa(lp683
I0
aI0
aI0
aI0
aI0
aI0
aI0
aI0
aI0
aI0
aI0
aI0
aI0
aI0
aI0
aI0
aI0
aI0
aI0
aI0
aI0
aI0
aI0
aI0
aI0
aI0
aI0
aI0
aI0
aI0
aI0
aI0
aI0
aa(lp684
I0
aI0
aI0
aI0
aI0
aI0
aI0
aI0
aI0
aI0
aI0
aI0
aI0
aI0
aI0
aI0
aI0
aI0
aI0
aI0
aI0
aI0
aI0
aI0
aI0
aI0
aI0
aI0
aI0
aI0
aI0
aI0
aI0
aa(lp685
I0
aI0
aI0
aI0
aI0
aI0
aI0
aI0
aI0
aI0
aI0
aI0
aI0
aI0
aI0
aI0
aI0
aI0
aI0
aI0
aI0
aI0
aI0
aI0
aI0
aI0
aI0
aI0
aI0
aI0
aI0
aI0
aI0
aa(lp686
I0
aI0
aI0
aI0
aI0
aI0
aI0
aI0
aI0
aI0
aI0
aI0
aI0
aI1
aI0
aI0
aI0
aI0
aI0
aI0
aI0
aI0
aI0
aI0
aI0
aI0
aI0
aI0
aI0
aI0
aI0
aI0
aI0
aa(lp687
I0
aI0
aI0
aI0
aI13
aI5
aI0
aI0
aI2
aI2
aI37
aI6
aI0
aI0
aI7
aI0
aI79
aI52
aI5
aI0
aI0
aI1
aI0
aI0
aI0
aI0
aI0
aI0
aI0
aI0
aI0
aI0
aI0
aa(lp688
I0
aI0
aI0
aI0
aI0
aI0
aI0
aI0
aI0
aI0
aI0
aI0
aI0
aI0
aI0
aI0
aI0
aI0
aI0
aI0
aI0
aI0
aI0
aI0
aI0
aI0
aI0
aI0
aI0
aI0
aI0
aI0
aI0
aa(lp689
I0
aI0
aI0
aI0
aI0
aI0
aI0
aI0
aI0
aI0
aI0
aI0
aI0
aI0
aI0
aI0
aI0
aI0
aI0
aI0
aI0
aI0
aI0
aI0
aI0
aI0
aI0
aI0
aI0
aI0
aI0
aI0
aI0
aa(lp690
I1
aI1
aI0
aI46
aI1
aI4
aI0
aI31
aI12
aI2
aI19
aI34
aI0
aI11
aI8
aI0
aI16
aI16
aI0
aI0
aI1
aI0
aI166
aI5
aI2
aI0
aI0
aI0
aI0
aI0
aI8
aI8
aI0
aa(lp691
I0
aI0
aI0
aI0
aI0
aI0
aI0
aI0
aI0
aI0
aI0
aI0
aI0
aI0
aI0
aI0
aI0
aI0
aI0
aI0
aI0
aI0
aI0
aI0
aI0
aI0
aI0
aI0
aI0
aI0
aI0
aI0
aI0
aa(lp692
I0
aI0
aI0
aI0
aI0
aI0
aI0
aI0
aI0
aI0
aI0
aI0
aI0
aI0
aI0
aI0
aI0
aI0
aI0
aI0
aI0
aI0
aI0
aI0
aI0
aI0
aI0
aI0
aI0
aI0
aI0
aI0
aI0
aa(lp693
I24
aI0
aI0
aI0
aI0
aI6
aI0
aI0
aI11
aI0
aI0
aI0
aI0
aI0
aI56
aI0
aI0
aI0
aI0
aI0
aI0
aI0
aI0
aI0
aI0
aI0
aI0
aI0
aI0
aI0
aI3
aI24
aI0
aa(lp694
I0
aI0
aI0
aI0
aI0
aI0
aI0
aI0
aI0
aI0
aI0
aI0
aI0
aI0
aI0
aI0
aI0
aI0
aI0
aI2
aI0
aI0
aI0
aI0
aI0
aI0
aI0
aI0
aI0
aI0
aI0
aI0
aI0
aa(lp695
I0
aI0
aI0
aI0
aI0
aI0
aI0
aI0
aI0
aI0
aI0
aI0
aI0
aI0
aI0
aI0
aI0
aI0
aI0
aI0
aI0
aI0
aI0
aI0
aI0
aI0
aI0
aI1
aI0
aI0
aI0
aI0
aI0
aa(lp696
I0
aI0
aI4
aI0
aI0
aI0
aI0
aI0
aI0
aI0
aI8
aI0
aI11
aI124
aI0
aI0
aI250
aI2
aI30
aI0
aI0
aI0
aI0
aI0
aI0
aI0
aI0
aI0
aI0
aI0
aI0
aI0
aI0
aa(lp697
I0
aI0
aI0
aI0
aI0
aI0
aI0
aI0
aI0
aI0
aI0
aI0
aI0
aI0
aI0
aI0
aI0
aI0
aI0
aI0
aI0
aI0
aI0
aI0
aI0
aI0
aI0
aI0
aI0
aI0
aI0
aI0
aI0
aa(lp698
I54
aI0
aI0
aI0
aI0
aI49
aI0
aI0
aI5
aI0
aI0
aI0
aI0
aI0
aI11
aI0
aI0
aI0
aI0
aI12
aI0
aI0
aI0
aI0
aI0
aI0
aI0
aI6
aI0
aI0
aI0
aI0
aI0
aa(lp699
I0
aI0
aI0
aI0
aI0
aI0
aI0
aI0
aI0
aI0
aI5
aI0
aI0
aI0
aI1
aI0
aI0
aI0
aI2
aI0
aI0
aI0
aI0
aI0
aI0
aI0
aI0
aI0
aI0
aI0
aI0
aI0
aI0
aa(lp700
I10
aI0
aI0
aI0
aI0
aI10
aI0
aI0
aI1
aI0
aI0
aI0
aI0
aI0
aI1
aI0
aI0
aI0
aI0
aI3
aI0
aI0
aI0
aI0
aI0
aI0
aI0
aI0
aI0
aI0
aI0
aI0
aI0
aa(lp701
I0
aI0
aI0
aI0
aI0
aI1
aI2
aI0
aI0
aI0
aI0
aI0
aI1
aI11
aI0
aI0
aI87
aI0
aI21
aI0
aI0
aI0
aI0
aI0
aI0
aI0
aI0
aI0
aI0
aI0
aI1
aI0
aI0
aa(lp702
I0
aI0
aI0
aI0
aI0
aI33
aI0
aI0
aI0
aI0
aI0
aI0
aI0
aI0
aI0
aI0
aI3
aI0
aI0
aI0
aI1
aI0
aI0
aI0
aI0
aI0
aI0
aI0
aI0
aI0
aI0
aI0
aI0
aa(lp703
I0
aI0
aI0
aI0
aI0
aI0
aI0
aI0
aI0
aI0
aI0
aI0
aI0
aI0
aI0
aI0
aI0
aI0
aI0
aI0
aI0
aI0
aI0
aI0
aI0
aI0
aI0
aI0
aI0
aI0
aI0
aI0
aI0
aa(lp704
I0
aI0
aI0
aI0
aI0
aI0
aI0
aI0
aI0
aI0
aI0
aI0
aI0
aI0
aI0
aI0
aI0
aI0
aI0
aI0
aI0
aI0
aI0
aI0
aI0
aI0
aI0
aI0
aI0
aI0
aI0
aI0
aI0
aa(lp705
I0
aI0
aI0
aI0
aI0
aI0
aI0
aI0
aI0
aI0
aI0
aI0
aI0
aI0
aI0
aI0
aI0
aI0
aI0
aI0
aI0
aI0
aI0
aI0
aI0
aI0
aI0
aI0
aI0
aI0
aI0
aI0
aI0
aa(lp706
I0
aI0
aI0
aI0
aI0
aI0
aI0
aI0
aI0
aI0
aI0
aI0
aI0
aI0
aI0
aI0
aI0
aI0
aI8
aI0
aI0
aI0
aI0
aI0
aI0
aI0
aI0
aI0
aI0
aI0
aI0
aI0
aI0
aa(lp707
I0
aI0
aI0
aI0
aI0
aI0
aI0
aI0
aI0
aI0
aI0
aI0
aI0
aI0
aI0
aI0
aI0
aI0
aI0
aI0
aI0
aI0
aI0
aI0
aI0
aI0
aI0
aI0
aI0
aI0
aI0
aI0
aI0
aa(lp708
I0
aI0
aI0
aI0
aI0
aI0
aI0
aI0
aI0
aI0
aI0
aI0
aI0
aI0
aI0
aI0
aI0
aI0
aI0
aI0
aI0
aI0
aI0
aI0
aI0
aI0
aI0
aI0
aI0
aI0
aI0
aI0
aI0
aa(lp709
I0
aI0
aI0
aI0
aI0
aI0
aI0
aI0
aI0
aI0
aI0
aI0
aI0
aI0
aI0
aI0
aI21
aI0
aI0
aI0
aI0
aI0
aI0
aI0
aI0
aI0
aI0
aI0
aI0
aI0
aI0
aI0
aI0
aa(lp710
I0
aI0
aI0
aI0
aI0
aI0
aI0
aI0
aI0
aI0
aI0
aI0
aI0
aI0
aI0
aI0
aI0
aI0
aI0
aI0
aI0
aI0
aI0
aI0
aI0
aI0
aI0
aI0
aI0
aI0
aI3
aI0
aI0
aa(lp711
I0
aI0
aI0
aI0
aI0
aI0
aI0
aI0
aI0
aI0
aI0
aI0
aI0
aI0
aI0
aI0
aI0
aI0
aI8
aI0
aI0
aI0
aI0
aI0
aI0
aI0
aI0
aI0
aI0
aI0
aI0
aI0
aI0
aa(lp712
I0
aI0
aI0
aI0
aI0
aI0
aI0
aI2
aI0
aI0
aI0
aI0
aI0
aI0
aI0
aI0
aI0
aI0
aI0
aI0
aI0
aI0
aI0
aI0
aI0
aI0
aI0
aI0
aI0
aI0
aI0
aI0
aI0
aa(lp713
I0
aI0
aI0
aI0
aI0
aI0
aI0
aI0
aI0
aI0
aI1
aI0
aI0
aI1
aI0
aI0
aI0
aI0
aI0
aI0
aI0
aI0
aI0
aI0
aI0
aI0
aI0
aI0
aI0
aI0
aI0
aI0
aI0
aa(lp714
I0
aI0
aI0
aI0
aI0
aI0
aI0
aI0
aI0
aI0
aI0
aI0
aI0
aI0
aI0
aI0
aI0
aI0
aI0
aI0
aI0
aI0
aI0
aI0
aI0
aI0
aI0
aI0
aI0
aI0
aI0
aI0
aI0
aaa(lp715
(lp716
I0
aI8
aI15
aI0
aI0
aI5
aI9
aI0
aI1
aI1
aI0
aI188
aI16
aI106
aI3
aI2
aI29
aI0
aI45
aI0
aI0
aI2
aI0
aI0
aI0
aI0
aI0
aI0
aI0
aI0
aI8
aI28
aI0
aa(lp717
I0
aI0
aI0
aI0
aI0
aI0
aI0
aI0
aI0
aI0
aI0
aI0
aI0
aI0
aI1
aI0
aI0
aI0
aI0
aI0
aI0
aI0
aI0
aI0
aI0
aI0
aI0
aI0
aI0
aI0
aI0
aI0
aI0
aa(lp718
I500
aI0
aI0
aI0
aI0
aI0
aI0
aI0
aI0
aI0
aI0
aI0
aI0
aI0
aI18
aI0
aI0
aI0
aI0
aI0
aI0
aI0
aI0
aI0
aI0
aI0
aI0
aI0
aI0
aI0
aI0
aI0
aI0
aa(lp719
I1
aI0
aI0
aI0
aI0
aI0
aI0
aI0
aI0
aI0
aI0
aI0
aI0
aI0
aI0
aI0
aI0
aI0
aI0
aI0
aI0
aI0
aI0
aI0
aI0
aI0
aI0
aI0
aI0
aI0
aI0
aI0
aI0
aa(lp720
I0
aI0
aI0
aI0
aI0
aI0
aI0
aI0
aI0
aI0
aI0
aI0
aI0
aI0
aI0
aI0
aI0
aI0
aI0
aI0
aI0
aI0
aI0
aI0
aI0
aI0
aI0
aI0
aI0
aI0
aI1
aI0
aI0
aa(lp721
I0
aI0
aI0
aI0
aI0
aI0
aI0
aI0
aI0
aI1
aI0
aI0
aI12
aI9
aI0
aI0
aI2
aI9
aI1
aI0
aI0
aI0
aI0
aI0
aI0
aI0
aI0
aI0
aI0
aI0
aI0
aI0
aI0
aa(lp722
I0
aI0
aI0
aI0
aI0
aI0
aI0
aI0
aI0
aI0
aI0
aI0
aI0
aI0
aI0
aI0
aI0
aI0
aI0
aI0
aI0
aI0
aI0
aI0
aI0
aI0
aI0
aI0
aI0
aI0
aI0
aI0
aI0
aa(lp723
I0
aI0
aI1
aI0
aI0
aI0
aI0
aI0
aI0
aI0
aI0
aI0
aI0
aI0
aI0
aI0
aI0
aI0
aI0
aI0
aI0
aI0
aI0
aI0
aI0
aI0
aI0
aI0
aI0
aI0
aI0
aI0
aI0
aa(lp724
I5
aI0
aI39
aI0
aI4
aI15
aI1
aI0
aI0
aI9
aI5
aI2
aI15
aI6
aI0
aI1
aI10
aI3
aI43
aI0
aI0
aI9
aI0
aI2
aI0
aI24
aI0
aI0
aI0
aI0
aI0
aI3
aI0
aa(lp725
I0
aI0
aI0
aI0
aI0
aI0
aI0
aI0
aI0
aI0
aI0
aI0
aI0
aI0
aI0
aI0
aI0
aI0
aI0
aI0
aI0
aI0
aI0
aI0
aI0
aI0
aI0
aI0
aI0
aI0
aI0
aI0
aI0
aa(lp726
I0
aI0
aI0
aI0
aI0
aI0
aI0
aI0
aI1
aI0
aI0
aI0
aI0
aI0
aI4
aI0
aI0
aI0
aI0
aI0
aI0
aI0
aI0
aI0
aI0
aI0
aI0
aI0
aI0
aI0
aI0
aI0
aI0
aa(lp727
I31
aI0
aI0
aI0
aI0
aI48
aI0
aI0
aI14
aI0
aI0
aI0
aI0
aI0
aI97
aI0
aI0
aI0
aI0
aI3
aI0
aI0
aI0
aI0
aI0
aI0
aI0
aI29
aI0
aI0
aI1
aI4
aI0
aa(lp728
I10
aI0
aI0
aI0
aI0
aI12
aI0
aI0
aI0
aI0
aI0
aI0
aI0
aI0
aI2
aI0
aI0
aI0
aI0
aI36
aI0
aI0
aI0
aI0
aI0
aI0
aI0
aI33
aI0
aI0
aI0
aI0
aI0
aa(lp729
I0
aI0
aI0
aI0
aI0
aI28
aI0
aI0
aI80
aI0
aI0
aI0
aI0
aI0
aI48
aI0
aI0
aI0
aI0
aI426
aI0
aI0
aI0
aI0
aI0
aI0
aI0
aI8
aI0
aI0
aI9
aI3
aI0
aa(lp730
I0
aI1
aI48
aI20
aI1009
aI9
aI189
aI64
aI0
aI19
aI0
aI151
aI73
aI42
aI0
aI6
aI260
aI0
aI591
aI0
aI0
aI25
aI3
aI159
aI0
aI0
aI0
aI0
aI0
aI0
aI0
aI0
aI0
aa(lp731
I0
aI0
aI0
aI0
aI0
aI0
aI0
aI0
aI0
aI0
aI0
aI0
aI0
aI0
aI0
aI0
aI0
aI0
aI0
aI0
aI0
aI0
aI0
aI0
aI0
aI0
aI0
aI0
aI0
aI0
aI0
aI0
aI0
aa(lp732
I249
aI0
aI0
aI0
aI0
aI2
aI0
aI0
aI58
aI0
aI0
aI0
aI0
aI0
aI6
aI0
aI0
aI0
aI0
aI24
aI0
aI0
aI0
aI0
aI0
aI0
aI0
aI1
aI0
aI0
aI10
aI2
aI0
aa(lp733
I0
aI0
aI1
aI0
aI0
aI2
aI0
aI0
aI0
aI0
aI1
aI0
aI0
aI0
aI9
aI0
aI0
aI0
aI0
aI0
aI0
aI0
aI0
aI0
aI0
aI0
aI0
aI0
aI0
aI0
aI0
aI45
aI0
aa(lp734
I14
aI0
aI0
aI0
aI0
aI21
aI0
aI0
aI0
aI0
aI0
aI0
aI0
aI0
aI7
aI0
aI0
aI0
aI0
aI10
aI0
aI0
aI0
aI0
aI0
aI0
aI0
aI10
aI0
aI0
aI0
aI6
aI0
aa(lp735
I1
aI0
aI0
aI0
aI19
aI1
aI28
aI0
aI0
aI0
aI0
aI14
aI0
aI1
aI0
aI0
aI0
aI0
aI0
aI0
aI0
aI0
aI0
aI2
aI6
aI0
aI0
aI0
aI0
aI0
aI3
aI0
aI0
aa(lp736
I0
aI0
aI0
aI0
aI0
aI0
aI0
aI0
aI0
aI0
aI0
aI0
aI0
aI0
aI0
aI0
aI0
aI0
aI0
aI0
aI0
aI0
aI0
aI0
aI0
aI0
aI0
aI0
aI0
aI0
aI0
aI0
aI0
aa(lp737
I0
aI0
aI0
aI0
aI0
aI0
aI0
aI0
aI0
aI0
aI0
aI0
aI0
aI0
aI0
aI0
aI0
aI0
aI0
aI0
aI0
aI0
aI0
aI0
aI0
aI0
aI0
aI0
aI0
aI0
aI0
aI0
aI0
aa(lp738
I0
aI0
aI1
aI0
aI0
aI0
aI0
aI0
aI1
aI0
aI0
aI0
aI0
aI0
aI0
aI0
aI0
aI0
aI0
aI0
aI0
aI0
aI0
aI0
aI0
aI0
aI0
aI0
aI0
aI0
aI0
aI0
aI0
aa(lp739
I1
aI0
aI0
aI0
aI0
aI1
aI0
aI0
aI0
aI0
aI0
aI0
aI0
aI0
aI0
aI0
aI0
aI0
aI0
aI0
aI0
aI0
aI0
aI0
aI0
aI0
aI0
aI0
aI0
aI0
aI0
aI0
aI0
aa(lp740
I0
aI0
aI0
aI0
aI0
aI1
aI0
aI0
aI4
aI0
aI0
aI0
aI0
aI0
aI0
aI0
aI0
aI0
aI0
aI2
aI0
aI0
aI0
aI0
aI0
aI0
aI0
aI0
aI0
aI0
aI0
aI0
aI0
aa(lp741
I0
aI0
aI0
aI0
aI0
aI0
aI0
aI0
aI0
aI0
aI0
aI0
aI0
aI0
aI0
aI0
aI0
aI0
aI0
aI0
aI0
aI0
aI0
aI0
aI0
aI0
aI0
aI0
aI0
aI0
aI0
aI0
aI0
aa(lp742
I0
aI0
aI0
aI0
aI0
aI1
aI0
aI0
aI0
aI0
aI0
aI0
aI0
aI0
aI0
aI0
aI0
aI0
aI0
aI0
aI0
aI0
aI0
aI0
aI0
aI0
aI0
aI0
aI0
aI0
aI0
aI1
aI0
aa(lp743
I0
aI0
aI0
aI0
aI0
aI0
aI0
aI0
aI0
aI0
aI0
aI0
aI0
aI0
aI0
aI0
aI0
aI0
aI0
aI0
aI0
aI0
aI0
aI0
aI0
aI0
aI0
aI0
aI0
aI0
aI0
aI0
aI0
aa(lp744
I0
aI0
aI0
aI0
aI0
aI0
aI0
aI0
aI0
aI0
aI0
aI0
aI0
aI0
aI0
aI0
aI0
aI0
aI0
aI0
aI0
aI0
aI0
aI0
aI0
aI0
aI0
aI0
aI0
aI0
aI0
aI0
aI0
aa(lp745
I0
aI0
aI0
aI0
aI0
aI0
aI0
aI0
aI0
aI0
aI1
aI0
aI1
aI0
aI0
aI0
aI0
aI0
aI0
aI0
aI0
aI0
aI0
aI0
aI0
aI0
aI0
aI0
aI0
aI0
aI0
aI0
aI0
aa(lp746
I0
aI0
aI0
aI0
aI0
aI0
aI0
aI0
aI0
aI0
aI0
aI0
aI0
aI0
aI0
aI0
aI0
aI0
aI0
aI0
aI0
aI0
aI0
aI0
aI0
aI0
aI0
aI0
aI0
aI0
aI0
aI0
aI0
aa(lp747
I0
aI0
aI0
aI0
aI0
aI0
aI0
aI0
aI0
aI0
aI0
aI0
aI0
aI0
aI0
aI0
aI0
aI0
aI0
aI0
aI0
aI0
aI0
aI0
aI0
aI0
aI0
aI0
aI0
aI0
aI0
aI0
aI0
aa(lp748
I0
aI0
aI0
aI0
aI0
aI0
aI0
aI0
aI0
aI0
aI0
aI0
aI0
aI0
aI0
aI0
aI0
aI0
aI0
aI0
aI0
aI0
aI0
aI0
aI0
aI0
aI0
aI0
aI0
aI0
aI0
aI0
aI0
aaa(lp749
(lp750
I0
aI0
aI0
aI0
aI0
aI5
aI0
aI0
aI0
aI1
aI0
aI6
aI78
aI1
aI0
aI6
aI32
aI0
aI154
aI0
aI0
aI24
aI1
aI0
aI0
aI0
aI0
aI0
aI0
aI0
aI2
aI2
aI0
aa(lp751
I0
aI0
aI0
aI0
aI0
aI0
aI0
aI0
aI0
aI0
aI0
aI1
aI0
aI0
aI1
aI0
aI0
aI0
aI0
aI0
aI0
aI0
aI0
aI0
aI0
aI0
aI0
aI0
aI0
aI0
aI0
aI0
aI0
aa(lp752
I0
aI0
aI0
aI0
aI0
aI68
aI0
aI0
aI0
aI0
aI0
aI0
aI0
aI0
aI1
aI0
aI0
aI0
aI0
aI0
aI0
aI0
aI0
aI0
aI0
aI0
aI0
aI0
aI0
aI0
aI0
aI0
aI0
aa(lp753
I0
aI0
aI0
aI0
aI0
aI0
aI0
aI0
aI0
aI0
aI0
aI0
aI0
aI0
aI0
aI0
aI0
aI0
aI0
aI0
aI0
aI0
aI0
aI0
aI0
aI0
aI0
aI0
aI0
aI0
aI0
aI0
aI0
aa(lp754
I0
aI0
aI0
aI0
aI0
aI0
aI0
aI0
aI0
aI0
aI0
aI0
aI0
aI0
aI0
aI0
aI0
aI0
aI0
aI0
aI0
aI0
aI0
aI0
aI0
aI0
aI0
aI0
aI0
aI0
aI0
aI0
aI0
aa(lp755
I0
aI0
aI80
aI0
aI24
aI0
aI0
aI1
aI0
aI130
aI0
aI219
aI56
aI141
aI0
aI104
aI157
aI20
aI5
aI0
aI0
aI1
aI0
aI0
aI0
aI0
aI0
aI0
aI0
aI0
aI0
aI0
aI0
aa(lp756
I0
aI0
aI0
aI0
aI0
aI0
aI0
aI0
aI0
aI0
aI0
aI0
aI0
aI0
aI0
aI0
aI0
aI0
aI0
aI0
aI0
aI0
aI0
aI0
aI0
aI0
aI0
aI0
aI0
aI0
aI0
aI0
aI0
aa(lp757
I0
aI0
aI0
aI0
aI0
aI0
aI0
aI0
aI0
aI0
aI0
aI0
aI0
aI0
aI0
aI0
aI0
aI0
aI0
aI0
aI0
aI0
aI0
aI0
aI0
aI0
aI0
aI0
aI0
aI0
aI0
aI0
aI0
aa(lp758
I126
aI0
aI27
aI0
aI2
aI46
aI0
aI0
aI250
aI29
aI15
aI5
aI0
aI15
aI44
aI24
aI11
aI5
aI13
aI0
aI12
aI0
aI1
aI0
aI0
aI0
aI0
aI0
aI0
aI0
aI143
aI197
aI0
aa(lp759
I0
aI0
aI0
aI0
aI0
aI0
aI0
aI0
aI0
aI0
aI0
aI0
aI0
aI0
aI0
aI0
aI0
aI0
aI0
aI0
aI0
aI0
aI0
aI0
aI0
aI0
aI0
aI0
aI0
aI0
aI0
aI0
aI0
aa(lp760
I4
aI0
aI0
aI0
aI0
aI0
aI0
aI0
aI8
aI0
aI0
aI0
aI0
aI0
aI8
aI0
aI1
aI0
aI0
aI2
aI0
aI0
aI0
aI0
aI0
aI0
aI0
aI0
aI0
aI0
aI0
aI0
aI0
aa(lp761
I0
aI0
aI0
aI0
aI0
aI0
aI0
aI0
aI0
aI0
aI0
aI0
aI0
aI0
aI0
aI0
aI0
aI0
aI0
aI0
aI0
aI0
aI0
aI0
aI0
aI0
aI0
aI0
aI0
aI0
aI0
aI0
aI0
aa(lp762
I0
aI0
aI0
aI0
aI0
aI0
aI0
aI0
aI0
aI0
aI0
aI0
aI0
aI0
aI0
aI0
aI0
aI0
aI0
aI0
aI0
aI0
aI0
aI0
aI0
aI0
aI0
aI0
aI0
aI0
aI0
aI0
aI0
aa(lp763
I2
aI0
aI0
aI0
aI0
aI0
aI0
aI0
aI0
aI0
aI0
aI0
aI0
aI0
aI0
aI0
aI0
aI0
aI0
aI0
aI0
aI0
aI0
aI0
aI0
aI0
aI0
aI0
aI0
aI0
aI0
aI0
aI0
aa(lp764
I0
aI0
aI51
aI0
aI0
aI0
aI0
aI0
aI0
aI0
aI1
aI0
aI42
aI0
aI0
aI0
aI1
aI0
aI0
aI0
aI0
aI0
aI0
aI0
aI0
aI0
aI0
aI0
aI0
aI0
aI0
aI0
aI0
aa(lp765
I0
aI0
aI0
aI0
aI0
aI0
aI0
aI0
aI0
aI0
aI0
aI0
aI0
aI0
aI0
aI0
aI0
aI0
aI0
aI0
aI0
aI0
aI0
aI0
aI0
aI0
aI0
aI0
aI0
aI0
aI0
aI0
aI0
aa(lp766
I0
aI0
aI0
aI0
aI0
aI0
aI0
aI0
aI0
aI0
aI0
aI0
aI0
aI0
aI0
aI0
aI0
aI0
aI0
aI0
aI0
aI0
aI0
aI0
aI0
aI0
aI0
aI0
aI0
aI0
aI0
aI0
aI0
aa(lp767
I0
aI0
aI0
aI0
aI0
aI0
aI0
aI0
aI0
aI0
aI0
aI0
aI0
aI0
aI0
aI0
aI0
aI0
aI0
aI0
aI0
aI0
aI0
aI0
aI0
aI0
aI0
aI0
aI0
aI0
aI0
aI0
aI0
aa(lp768
I0
aI0
aI0
aI0
aI0
aI0
aI0
aI0
aI0
aI0
aI0
aI0
aI0
aI0
aI0
aI0
aI0
aI0
aI0
aI0
aI0
aI0
aI0
aI0
aI0
aI0
aI0
aI0
aI0
aI0
aI0
aI0
aI0
aa(lp769
I0
aI0
aI0
aI0
aI0
aI1
aI0
aI18
aI0
aI0
aI0
aI0
aI0
aI0
aI0
aI0
aI0
aI0
aI0
aI0
aI0
aI0
aI0
aI0
aI0
aI0
aI0
aI0
aI0
aI0
aI0
aI0
aI0
aa(lp770
I0
aI0
aI0
aI0
aI0
aI0
aI0
aI0
aI0
aI0
aI0
aI0
aI0
aI0
aI0
aI0
aI0
aI0
aI0
aI0
aI0
aI0
aI0
aI0
aI0
aI0
aI0
aI0
aI0
aI0
aI0
aI0
aI0
aa(lp771
I0
aI0
aI0
aI0
aI0
aI0
aI0
aI0
aI0
aI0
aI0
aI0
aI0
aI0
aI0
aI0
aI0
aI0
aI0
aI0
aI0
aI0
aI0
aI0
aI0
aI0
aI0
aI0
aI0
aI0
aI0
aI0
aI0
aa(lp772
I0
aI0
aI0
aI0
aI0
aI0
aI0
aI0
aI0
aI0
aI0
aI0
aI0
aI0
aI0
aI0
aI0
aI0
aI0
aI0
aI0
aI0
aI0
aI0
aI0
aI0
aI0
aI0
aI0
aI0
aI0
aI0
aI0
aa(lp773
I0
aI0
aI0
aI0
aI0
aI0
aI0
aI0
aI0
aI0
aI0
aI0
aI0
aI0
aI0
aI0
aI0
aI0
aI0
aI0
aI0
aI0
aI0
aI0
aI0
aI0
aI0
aI0
aI0
aI0
aI0
aI0
aI0
aa(lp774
I0
aI0
aI0
aI0
aI0
aI0
aI0
aI0
aI0
aI0
aI0
aI0
aI0
aI0
aI0
aI0
aI0
aI0
aI0
aI0
aI0
aI0
aI0
aI0
aI0
aI0
aI0
aI0
aI0
aI0
aI0
aI0
aI0
aa(lp775
I0
aI0
aI0
aI0
aI0
aI0
aI0
aI0
aI0
aI0
aI0
aI0
aI0
aI0
aI0
aI0
aI0
aI0
aI0
aI0
aI0
aI0
aI0
aI0
aI0
aI0
aI0
aI0
aI0
aI0
aI0
aI0
aI0
aa(lp776
I0
aI0
aI0
aI0
aI0
aI0
aI0
aI0
aI0
aI0
aI0
aI0
aI0
aI0
aI0
aI0
aI0
aI0
aI0
aI0
aI0
aI0
aI0
aI0
aI0
aI0
aI0
aI0
aI0
aI0
aI0
aI0
aI0
aa(lp777
I0
aI0
aI0
aI0
aI0
aI0
aI0
aI0
aI0
aI1
aI0
aI0
aI0
aI0
aI0
aI9
aI0
aI0
aI0
aI0
aI0
aI0
aI0
aI0
aI0
aI0
aI0
aI0
aI0
aI0
aI0
aI0
aI0
aa(lp778
I0
aI0
aI0
aI0
aI0
aI0
aI0
aI0
aI0
aI0
aI0
aI0
aI0
aI0
aI0
aI0
aI0
aI0
aI0
aI0
aI0
aI0
aI0
aI0
aI0
aI0
aI0
aI0
aI0
aI0
aI0
aI0
aI0
aa(lp779
I0
aI0
aI0
aI0
aI0
aI0
aI0
aI0
aI0
aI0
aI0
aI0
aI0
aI0
aI0
aI0
aI0
aI0
aI0
aI0
aI0
aI0
aI0
aI0
aI0
aI0
aI0
aI0
aI0
aI0
aI0
aI0
aI0
aa(lp780
I0
aI0
aI0
aI0
aI0
aI0
aI0
aI0
aI0
aI0
aI0
aI0
aI0
aI0
aI0
aI0
aI0
aI0
aI0
aI0
aI0
aI0
aI0
aI0
aI0
aI0
aI0
aI0
aI0
aI0
aI0
aI0
aI0
aa(lp781
I0
aI0
aI0
aI0
aI0
aI0
aI0
aI0
aI0
aI0
aI0
aI0
aI0
aI0
aI0
aI0
aI0
aI0
aI0
aI0
aI0
aI0
aI0
aI0
aI0
aI0
aI0
aI0
aI0
aI0
aI0
aI0
aI0
aa(lp782
I0
aI0
aI0
aI0
aI0
aI0
aI0
aI0
aI0
aI0
aI0
aI0
aI0
aI0
aI0
aI0
aI0
aI0
aI0
aI0
aI0
aI0
aI0
aI0
aI0
aI0
aI0
aI0
aI0
aI0
aI0
aI0
aI0
aaa(lp783
(lp784
I0
aI0
aI19
aI12
aI1
aI147
aI4
aI0
aI5
aI136
aI0
aI777
aI26
aI42
aI0
aI0
aI19
aI647
aI301
aI0
aI0
aI15
aI0
aI0
aI12
aI13
aI0
aI0
aI0
aI0
aI46
aI75
aI0
aa(lp785
I0
aI0
aI0
aI0
aI0
aI0
aI0
aI0
aI0
aI0
aI0
aI0
aI0
aI0
aI0
aI0
aI0
aI0
aI0
aI0
aI0
aI0
aI0
aI0
aI0
aI0
aI0
aI0
aI0
aI0
aI0
aI0
aI0
aa(lp786
I0
aI0
aI0
aI0
aI0
aI1
aI0
aI0
aI0
aI0
aI0
aI0
aI0
aI0
aI1
aI0
aI0
aI0
aI0
aI1
aI0
aI0
aI0
aI0
aI0
aI0
aI0
aI1
aI0
aI0
aI0
aI0
aI0
aa(lp787
I0
aI0
aI0
aI0
aI0
aI0
aI0
aI0
aI0
aI0
aI0
aI0
aI0
aI0
aI0
aI0
aI0
aI0
aI0
aI0
aI0
aI0
aI0
aI0
aI0
aI0
aI0
aI0
aI0
aI0
aI0
aI0
aI0
aa(lp788
I0
aI0
aI0
aI0
aI0
aI0
aI0
aI0
aI0
aI0
aI0
aI0
aI0
aI0
aI0
aI0
aI0
aI0
aI0
aI0
aI0
aI0
aI0
aI0
aI0
aI0
aI0
aI0
aI0
aI0
aI0
aI0
aI0
aa(lp789
I0
aI26
aI59
aI435
aI1
aI14
aI0
aI123
aI0
aI50
aI68
aI396
aI756
aI732
aI0
aI12
aI695
aI676
aI334
aI0
aI0
aI0
aI0
aI3
aI43
aI0
aI0
aI0
aI0
aI0
aI1
aI0
aI0
aa(lp790
I0
aI0
aI0
aI0
aI0
aI0
aI0
aI0
aI0
aI0
aI0
aI0
aI0
aI0
aI0
aI0
aI0
aI0
aI0
aI0
aI0
aI0
aI0
aI0
aI0
aI0
aI0
aI0
aI0
aI0
aI0
aI0
aI0
aa(lp791
I0
aI0
aI0
aI0
aI0
aI0
aI0
aI0
aI0
aI0
aI0
aI0
aI0
aI0
aI0
aI0
aI0
aI0
aI0
aI0
aI0
aI0
aI0
aI0
aI0
aI0
aI0
aI0
aI0
aI0
aI0
aI0
aI0
aa(lp792
I0
aI0
aI229
aI0
aI0
aI39
aI0
aI0
aI2
aI21
aI193
aI480
aI24
aI239
aI0
aI0
aI2
aI137
aI626
aI0
aI0
aI25
aI0
aI0
aI23
aI13
aI0
aI0
aI0
aI0
aI1
aI10
aI0
aa(lp793
I0
aI0
aI0
aI0
aI0
aI0
aI0
aI0
aI0
aI0
aI0
aI0
aI0
aI0
aI0
aI0
aI0
aI0
aI0
aI0
aI0
aI0
aI0
aI0
aI0
aI0
aI0
aI0
aI0
aI0
aI0
aI0
aI0
aa(lp794
I170
aI0
aI0
aI0
aI0
aI47
aI0
aI0
aI138
aI0
aI0
aI0
aI0
aI0
aI98
aI0
aI0
aI0
aI0
aI178
aI0
aI0
aI0
aI0
aI0
aI0
aI0
aI0
aI0
aI0
aI0
aI0
aI0
aa(lp795
I1
aI0
aI0
aI0
aI0
aI12
aI0
aI0
aI8
aI0
aI0
aI0
aI0
aI0
aI0
aI0
aI0
aI0
aI0
aI0
aI0
aI0
aI0
aI0
aI0
aI0
aI0
aI0
aI0
aI0
aI0
aI0
aI0
aa(lp796
I0
aI0
aI0
aI0
aI0
aI0
aI0
aI0
aI0
aI0
aI0
aI0
aI0
aI0
aI7
aI0
aI0
aI0
aI0
aI0
aI0
aI0
aI0
aI0
aI0
aI0
aI0
aI0
aI0
aI0
aI0
aI0
aI0
aa(lp797
I59
aI0
aI0
aI0
aI0
aI62
aI0
aI0
aI72
aI0
aI0
aI0
aI0
aI0
aI803
aI0
aI0
aI0
aI0
aI57
aI0
aI0
aI0
aI0
aI0
aI0
aI0
aI262
aI0
aI0
aI0
aI1
aI0
aa(lp798
I0
aI0
aI0
aI0
aI15
aI0
aI0
aI0
aI0
aI0
aI43
aI0
aI23
aI16
aI0
aI0
aI0
aI0
aI0
aI0
aI0
aI0
aI0
aI0
aI0
aI0
aI0
aI0
aI0
aI0
aI0
aI0
aI0
aa(lp799
I0
aI0
aI0
aI0
aI0
aI0
aI0
aI0
aI0
aI0
aI0
aI0
aI0
aI0
aI0
aI0
aI0
aI0
aI0
aI0
aI0
aI0
aI0
aI0
aI0
aI0
aI0
aI0
aI0
aI0
aI0
aI0
aI0
aa(lp800
I0
aI0
aI0
aI0
aI0
aI19
aI0
aI0
aI0
aI0
aI0
aI0
aI0
aI0
aI0
aI0
aI0
aI0
aI0
aI0
aI0
aI0
aI0
aI0
aI0
aI0
aI0
aI0
aI0
aI0
aI0
aI0
aI0
aa(lp801
I0
aI0
aI0
aI0
aI0
aI0
aI0
aI0
aI0
aI0
aI0
aI0
aI0
aI0
aI0
aI0
aI0
aI0
aI0
aI0
aI0
aI0
aI0
aI0
aI0
aI0
aI0
aI0
aI0
aI0
aI0
aI0
aI0
aa(lp802
I14
aI0
aI0
aI0
aI0
aI14
aI0
aI0
aI112
aI0
aI0
aI0
aI0
aI0
aI3697
aI0
aI0
aI0
aI0
aI6
aI0
aI0
aI0
aI0
aI0
aI0
aI0
aI7
aI0
aI0
aI0
aI1
aI0
aa(lp803
I0
aI3
aI229
aI1
aI51
aI0
aI45
aI0
aI0
aI0
aI0
aI1
aI0
aI2
aI0
aI0
aI4
aI11
aI72
aI0
aI0
aI5
aI0
aI1
aI13
aI4
aI0
aI0
aI0
aI0
aI4
aI6
aI0
aa(lp804
I0
aI0
aI0
aI0
aI0
aI0
aI0
aI0
aI0
aI0
aI0
aI0
aI0
aI0
aI0
aI0
aI0
aI0
aI0
aI0
aI0
aI0
aI0
aI0
aI0
aI0
aI0
aI0
aI0
aI0
aI0
aI0
aI0
aa(lp805
I0
aI0
aI0
aI0
aI0
aI0
aI0
aI0
aI1
aI0
aI0
aI0
aI0
aI0
aI0
aI0
aI0
aI0
aI0
aI0
aI0
aI0
aI0
aI0
aI0
aI0
aI0
aI0
aI0
aI0
aI0
aI0
aI0
aa(lp806
I0
aI0
aI0
aI0
aI0
aI0
aI0
aI0
aI0
aI0
aI0
aI0
aI0
aI0
aI0
aI0
aI0
aI0
aI0
aI0
aI0
aI0
aI0
aI0
aI0
aI0
aI0
aI0
aI0
aI0
aI0
aI0
aI0
aa(lp807
I0
aI0
aI0
aI0
aI0
aI0
aI0
aI0
aI56
aI0
aI0
aI0
aI0
aI0
aI0
aI0
aI0
aI0
aI0
aI0
aI0
aI0
aI0
aI0
aI0
aI0
aI0
aI0
aI0
aI0
aI0
aI0
aI0
aa(lp808
I6
aI0
aI0
aI0
aI0
aI202
aI0
aI0
aI39
aI0
aI0
aI0
aI0
aI0
aI0
aI0
aI0
aI0
aI0
aI3
aI0
aI0
aI0
aI0
aI0
aI0
aI0
aI0
aI0
aI0
aI0
aI0
aI0
aa(lp809
I0
aI0
aI0
aI0
aI0
aI0
aI0
aI0
aI0
aI0
aI0
aI0
aI0
aI0
aI0
aI0
aI0
aI0
aI0
aI0
aI0
aI0
aI0
aI0
aI0
aI0
aI0
aI0
aI0
aI0
aI0
aI0
aI0
aa(lp810
I0
aI0
aI0
aI0
aI0
aI0
aI0
aI0
aI0
aI0
aI0
aI0
aI0
aI0
aI0
aI0
aI0
aI0
aI0
aI0
aI0
aI0
aI0
aI0
aI0
aI0
aI0
aI0
aI0
aI0
aI0
aI0
aI0
aa(lp811
I0
aI0
aI0
aI0
aI0
aI0
aI0
aI0
aI0
aI0
aI0
aI0
aI0
aI0
aI0
aI0
aI0
aI0
aI0
aI0
aI0
aI0
aI0
aI0
aI0
aI0
aI0
aI0
aI0
aI0
aI0
aI0
aI0
aa(lp812
I0
aI0
aI0
aI0
aI0
aI16
aI0
aI0
aI7
aI0
aI0
aI0
aI0
aI0
aI0
aI0
aI0
aI4
aI3
aI0
aI0
aI0
aI0
aI0
aI0
aI0
aI0
aI0
aI0
aI0
aI42
aI9
aI0
aa(lp813
I0
aI0
aI0
aI0
aI0
aI0
aI0
aI0
aI0
aI0
aI0
aI0
aI0
aI0
aI0
aI0
aI0
aI0
aI0
aI0
aI0
aI0
aI0
aI0
aI0
aI0
aI0
aI0
aI0
aI0
aI0
aI0
aI0
aa(lp814
I0
aI0
aI0
aI0
aI0
aI0
aI0
aI0
aI0
aI0
aI0
aI0
aI0
aI0
aI0
aI0
aI0
aI0
aI0
aI0
aI0
aI0
aI0
aI0
aI0
aI0
aI0
aI0
aI0
aI0
aI0
aI0
aI0
aa(lp815
I0
aI0
aI0
aI0
aI0
aI0
aI0
aI0
aI0
aI0
aI0
aI0
aI0
aI0
aI0
aI0
aI0
aI0
aI0
aI0
aI0
aI0
aI0
aI0
aI0
aI0
aI0
aI0
aI0
aI0
aI0
aI0
aI0
aa(lp816
I0
aI0
aI0
aI0
aI0
aI0
aI0
aI0
aI0
aI0
aI0
aI0
aI0
aI0
aI0
aI0
aI0
aI0
aI0
aI0
aI0
aI0
aI0
aI0
aI0
aI0
aI0
aI0
aI0
aI0
aI0
aI0
aI0
aaa(lp817
(lp818
I0
aI1
aI21
aI151
aI13
aI41
aI0
aI0
aI0
aI32
aI3
aI304
aI18
aI57
aI0
aI2
aI79
aI2
aI121
aI0
aI2
aI25
aI0
aI0
aI3
aI1
aI0
aI0
aI0
aI0
aI22
aI92
aI0
aa(lp819
I0
aI0
aI0
aI0
aI0
aI0
aI0
aI0
aI0
aI0
aI0
aI0
aI0
aI0
aI0
aI0
aI0
aI0
aI0
aI0
aI0
aI0
aI0
aI0
aI0
aI0
aI0
aI0
aI0
aI0
aI0
aI0
aI0
aa(lp820
I12
aI0
aI0
aI0
aI0
aI2
aI0
aI0
aI0
aI0
aI0
aI0
aI0
aI0
aI2
aI0
aI0
aI0
aI0
aI1
aI0
aI0
aI0
aI0
aI0
aI0
aI0
aI45
aI0
aI0
aI0
aI0
aI0
aa(lp821
I0
aI0
aI0
aI0
aI0
aI0
aI0
aI0
aI0
aI0
aI0
aI0
aI0
aI0
aI0
aI0
aI0
aI0
aI0
aI0
aI0
aI0
aI0
aI0
aI0
aI0
aI0
aI0
aI0
aI0
aI0
aI0
aI0
aa(lp822
I0
aI0
aI0
aI0
aI0
aI0
aI0
aI0
aI0
aI0
aI0
aI0
aI0
aI0
aI0
aI0
aI0
aI0
aI0
aI0
aI0
aI0
aI0
aI0
aI0
aI0
aI0
aI0
aI0
aI0
aI0
aI0
aI0
aa(lp823
I0
aI1
aI105
aI186
aI36
aI71
aI0
aI0
aI6
aI201
aI38
aI520
aI106
aI426
aI0
aI50
aI48
aI103
aI34
aI1
aI1
aI8
aI0
aI34
aI1
aI1
aI0
aI0
aI0
aI0
aI25
aI3
aI0
aa(lp824
I0
aI0
aI0
aI0
aI0
aI0
aI0
aI0
aI0
aI0
aI0
aI0
aI0
aI0
aI0
aI0
aI0
aI0
aI0
aI0
aI0
aI0
aI0
aI0
aI0
aI0
aI0
aI0
aI0
aI0
aI0
aI0
aI0
aa(lp825
I0
aI0
aI0
aI0
aI0
aI0
aI0
aI0
aI0
aI0
aI0
aI0
aI0
aI0
aI0
aI0
aI0
aI0
aI0
aI0
aI0
aI0
aI0
aI0
aI0
aI0
aI0
aI0
aI0
aI0
aI0
aI0
aI0
aa(lp826
I0
aI113
aI124
aI0
aI0
aI127
aI0
aI0
aI0
aI208
aI13
aI217
aI139
aI450
aI0
aI17
aI77
aI281
aI139
aI0
aI11
aI157
aI0
aI0
aI12
aI1
aI0
aI0
aI0
aI0
aI0
aI0
aI0
aa(lp827
I0
aI0
aI0
aI0
aI0
aI0
aI0
aI0
aI0
aI0
aI0
aI0
aI0
aI0
aI0
aI0
aI0
aI0
aI0
aI0
aI0
aI0
aI0
aI0
aI0
aI0
aI0
aI0
aI0
aI0
aI0
aI0
aI0
aa(lp828
I156
aI0
aI0
aI0
aI0
aI49
aI0
aI0
aI99
aI0
aI0
aI0
aI0
aI0
aI252
aI0
aI0
aI0
aI0
aI101
aI0
aI0
aI0
aI0
aI0
aI0
aI0
aI0
aI0
aI0
aI0
aI0
aI0
aa(lp829
I103
aI0
aI0
aI0
aI0
aI58
aI0
aI0
aI226
aI0
aI0
aI0
aI0
aI0
aI358
aI0
aI0
aI0
aI0
aI0
aI0
aI0
aI0
aI0
aI0
aI0
aI0
aI6
aI0
aI0
aI22
aI59
aI0
aa(lp830
I29
aI0
aI0
aI0
aI0
aI1
aI0
aI0
aI1
aI0
aI0
aI0
aI0
aI0
aI5
aI0
aI0
aI0
aI0
aI1
aI0
aI0
aI0
aI0
aI0
aI0
aI0
aI4
aI0
aI0
aI0
aI4
aI0
aa(lp831
I7
aI0
aI0
aI0
aI0
aI37
aI0
aI0
aI65
aI0
aI0
aI0
aI0
aI0
aI144
aI0
aI0
aI0
aI0
aI23
aI0
aI0
aI0
aI0
aI0
aI0
aI0
aI57
aI0
aI0
aI12
aI14
aI0
aa(lp832
I0
aI0
aI1
aI20
aI0
aI23
aI0
aI0
aI0
aI76
aI25
aI0
aI14
aI3
aI0
aI0
aI10
aI9
aI2
aI2
aI4
aI0
aI0
aI6
aI0
aI0
aI0
aI0
aI0
aI0
aI0
aI0
aI0
aa(lp833
I2
aI0
aI0
aI0
aI0
aI0
aI0
aI0
aI48
aI0
aI0
aI0
aI0
aI0
aI1
aI0
aI9
aI0
aI0
aI0
aI0
aI0
aI0
aI0
aI0
aI0
aI0
aI0
aI0
aI0
aI0
aI0
aI0
aa(lp834
I11
aI0
aI0
aI0
aI0
aI0
aI0
aI0
aI1
aI0
aI0
aI0
aI0
aI0
aI0
aI0
aI0
aI0
aI0
aI13
aI0
aI0
aI0
aI0
aI0
aI0
aI0
aI0
aI0
aI0
aI0
aI0
aI0
aa(lp835
I0
aI0
aI0
aI0
aI0
aI0
aI0
aI0
aI0
aI0
aI0
aI0
aI0
aI0
aI0
aI0
aI0
aI0
aI0
aI0
aI0
aI0
aI0
aI0
aI0
aI0
aI0
aI0
aI0
aI0
aI0
aI0
aI0
aa(lp836
I62
aI0
aI0
aI0
aI0
aI8
aI0
aI0
aI0
aI0
aI0
aI0
aI0
aI0
aI6
aI0
aI5
aI0
aI0
aI91
aI0
aI0
aI0
aI0
aI0
aI0
aI0
aI2
aI0
aI0
aI0
aI0
aI0
aa(lp837
I0
aI0
aI0
aI0
aI0
aI0
aI0
aI0
aI0
aI0
aI0
aI1
aI95
aI1
aI0
aI0
aI10
aI3
aI50
aI0
aI0
aI0
aI0
aI2
aI0
aI4
aI0
aI0
aI0
aI0
aI91
aI0
aI0
aa(lp838
I0
aI0
aI0
aI0
aI0
aI0
aI0
aI0
aI0
aI0
aI0
aI0
aI0
aI0
aI0
aI0
aI0
aI0
aI0
aI0
aI0
aI0
aI0
aI0
aI0
aI0
aI0
aI0
aI0
aI0
aI0
aI0
aI0
aa(lp839
I0
aI0
aI0
aI0
aI0
aI0
aI0
aI0
aI0
aI0
aI0
aI0
aI0
aI0
aI0
aI0
aI0
aI0
aI0
aI0
aI0
aI0
aI0
aI0
aI0
aI0
aI0
aI0
aI0
aI0
aI0
aI0
aI0
aa(lp840
I0
aI0
aI0
aI0
aI0
aI0
aI0
aI0
aI0
aI0
aI0
aI0
aI0
aI0
aI0
aI0
aI0
aI0
aI0
aI0
aI0
aI0
aI0
aI0
aI0
aI0
aI0
aI4
aI0
aI0
aI0
aI0
aI0
aa(lp841
I0
aI0
aI0
aI0
aI0
aI0
aI0
aI0
aI0
aI0
aI0
aI0
aI0
aI0
aI0
aI0
aI0
aI0
aI0
aI0
aI0
aI0
aI0
aI0
aI0
aI0
aI0
aI0
aI0
aI0
aI0
aI0
aI0
aa(lp842
I0
aI0
aI0
aI0
aI0
aI0
aI0
aI0
aI0
aI0
aI0
aI0
aI0
aI0
aI0
aI0
aI0
aI0
aI0
aI0
aI0
aI0
aI0
aI0
aI0
aI0
aI0
aI0
aI0
aI0
aI0
aI0
aI0
aa(lp843
I0
aI0
aI0
aI0
aI0
aI0
aI0
aI0
aI0
aI0
aI0
aI0
aI0
aI0
aI0
aI0
aI0
aI0
aI0
aI0
aI0
aI0
aI0
aI0
aI0
aI0
aI0
aI0
aI0
aI0
aI0
aI0
aI0
aa(lp844
I0
aI0
aI0
aI0
aI0
aI0
aI0
aI0
aI0
aI0
aI0
aI0
aI0
aI0
aI0
aI0
aI0
aI0
aI0
aI0
aI0
aI0
aI0
aI0
aI0
aI0
aI0
aI0
aI0
aI0
aI0
aI0
aI0
aa(lp845
I0
aI0
aI0
aI0
aI0
aI0
aI0
aI0
aI0
aI0
aI0
aI0
aI0
aI0
aI0
aI0
aI0
aI0
aI0
aI0
aI0
aI0
aI0
aI0
aI0
aI0
aI0
aI0
aI0
aI0
aI0
aI0
aI0
aa(lp846
I0
aI0
aI0
aI0
aI0
aI1
aI0
aI0
aI0
aI0
aI0
aI0
aI0
aI0
aI0
aI0
aI0
aI85
aI1
aI0
aI0
aI0
aI0
aI0
aI0
aI0
aI0
aI0
aI0
aI0
aI3
aI3
aI0
aa(lp847
I0
aI0
aI0
aI0
aI0
aI0
aI0
aI0
aI0
aI0
aI0
aI0
aI0
aI0
aI0
aI0
aI0
aI0
aI0
aI0
aI0
aI0
aI0
aI0
aI0
aI0
aI0
aI0
aI0
aI0
aI0
aI0
aI0
aa(lp848
I0
aI0
aI0
aI0
aI0
aI0
aI0
aI0
aI0
aI0
aI0
aI0
aI0
aI0
aI0
aI0
aI2
aI0
aI4
aI0
aI0
aI0
aI0
aI0
aI0
aI0
aI0
aI0
aI0
aI0
aI0
aI0
aI0
aa(lp849
I0
aI0
aI0
aI0
aI0
aI0
aI0
aI0
aI0
aI0
aI0
aI0
aI0
aI0
aI0
aI0
aI0
aI0
aI0
aI0
aI0
aI0
aI0
aI0
aI0
aI0
aI0
aI0
aI0
aI0
aI0
aI0
aI0
aa(lp850
I0
aI0
aI0
aI0
aI0
aI0
aI0
aI0
aI0
aI0
aI0
aI0
aI0
aI0
aI0
aI0
aI0
aI0
aI0
aI0
aI0
aI0
aI0
aI0
aI0
aI0
aI0
aI0
aI0
aI0
aI0
aI0
aI0
aaa(lp851
(lp852
I0
aI0
aI14
aI0
aI45
aI26
aI0
aI0
aI0
aI19
aI0
aI129
aI18
aI21
aI0
aI0
aI0
aI0
aI88
aI0
aI0
aI5
aI0
aI0
aI0
aI0
aI0
aI0
aI0
aI0
aI37
aI121
aI0
aa(lp853
I0
aI0
aI0
aI0
aI0
aI0
aI0
aI0
aI0
aI0
aI0
aI0
aI0
aI0
aI0
aI0
aI0
aI0
aI0
aI0
aI0
aI0
aI0
aI0
aI0
aI0
aI0
aI0
aI0
aI0
aI0
aI0
aI0
aa(lp854
I0
aI0
aI0
aI0
aI0
aI0
aI0
aI0
aI0
aI0
aI0
aI0
aI0
aI0
aI0
aI0
aI0
aI0
aI0
aI0
aI0
aI0
aI0
aI0
aI0
aI0
aI0
aI0
aI0
aI0
aI0
aI0
aI0
aa(lp855
I0
aI0
aI0
aI0
aI0
aI0
aI0
aI0
aI0
aI0
aI0
aI0
aI0
aI0
aI0
aI0
aI0
aI0
aI0
aI0
aI0
aI0
aI0
aI0
aI0
aI0
aI0
aI0
aI0
aI0
aI0
aI0
aI0
aa(lp856
I0
aI0
aI0
aI0
aI0
aI0
aI0
aI0
aI0
aI0
aI0
aI0
aI0
aI0
aI1
aI0
aI0
aI0
aI0
aI0
aI0
aI0
aI0
aI0
aI0
aI0
aI0
aI0
aI0
aI0
aI0
aI0
aI0
aa(lp857
I0
aI3
aI8
aI126
aI13
aI87
aI0
aI0
aI1
aI98
aI22
aI75
aI85
aI261
aI0
aI5
aI13
aI228
aI23
aI0
aI0
aI0
aI0
aI0
aI1
aI0
aI0
aI0
aI0
aI0
aI0
aI0
aI0
aa(lp858
I0
aI0
aI0
aI0
aI0
aI0
aI0
aI0
aI0
aI0
aI0
aI0
aI0
aI0
aI0
aI0
aI0
aI0
aI0
aI0
aI0
aI0
aI0
aI0
aI0
aI0
aI0
aI0
aI0
aI0
aI0
aI0
aI0
aa(lp859
I0
aI0
aI0
aI0
aI0
aI0
aI0
aI0
aI0
aI0
aI0
aI0
aI0
aI0
aI0
aI0
aI0
aI0
aI0
aI0
aI0
aI0
aI0
aI0
aI0
aI0
aI0
aI0
aI0
aI0
aI0
aI0
aI0
aa(lp860
I0
aI0
aI15
aI0
aI0
aI137
aI0
aI0
aI0
aI189
aI124
aI154
aI113
aI79
aI0
aI7
aI0
aI0
aI88
aI0
aI0
aI122
aI6
aI10
aI0
aI13
aI0
aI0
aI0
aI0
aI0
aI0
aI0
aa(lp861
I0
aI0
aI0
aI0
aI0
aI0
aI0
aI0
aI0
aI0
aI0
aI0
aI0
aI0
aI0
aI0
aI0
aI0
aI0
aI0
aI0
aI0
aI0
aI0
aI0
aI0
aI0
aI0
aI0
aI0
aI0
aI0
aI0
aa(lp862
I0
aI0
aI0
aI0
aI0
aI0
aI0
aI0
aI0
aI0
aI0
aI0
aI0
aI0
aI1
aI0
aI0
aI0
aI0
aI0
aI0
aI0
aI0
aI0
aI0
aI0
aI0
aI0
aI0
aI0
aI0
aI0
aI0
aa(lp863
I0
aI0
aI0
aI0
aI0
aI0
aI0
aI0
aI0
aI0
aI0
aI0
aI0
aI0
aI0
aI0
aI0
aI0
aI0
aI0
aI0
aI0
aI0
aI0
aI0
aI0
aI0
aI0
aI0
aI0
aI0
aI0
aI0
aa(lp864
I0
aI0
aI0
aI0
aI0
aI0
aI0
aI0
aI0
aI0
aI0
aI0
aI0
aI0
aI0
aI0
aI0
aI0
aI0
aI0
aI0
aI0
aI0
aI0
aI0
aI0
aI0
aI0
aI0
aI0
aI0
aI0
aI0
aa(lp865
I3
aI0
aI0
aI0
aI0
aI0
aI0
aI0
aI25
aI0
aI0
aI0
aI0
aI0
aI25
aI0
aI0
aI0
aI0
aI3
aI0
aI0
aI0
aI0
aI0
aI0
aI0
aI28
aI0
aI0
aI0
aI0
aI0
aa(lp866
I0
aI1
aI0
aI0
aI0
aI0
aI0
aI0
aI0
aI0
aI0
aI0
aI0
aI0
aI0
aI0
aI0
aI0
aI0
aI0
aI0
aI0
aI0
aI0
aI0
aI0
aI0
aI0
aI0
aI0
aI0
aI0
aI0
aa(lp867
I0
aI0
aI0
aI0
aI0
aI0
aI0
aI0
aI0
aI0
aI0
aI0
aI0
aI0
aI0
aI0
aI0
aI0
aI0
aI0
aI0
aI0
aI0
aI0
aI0
aI0
aI0
aI0
aI0
aI0
aI0
aI0
aI0
aa(lp868
I0
aI0
aI0
aI0
aI0
aI0
aI0
aI0
aI2
aI0
aI0
aI0
aI0
aI0
aI0
aI0
aI0
aI0
aI0
aI0
aI0
aI0
aI0
aI0
aI0
aI0
aI0
aI0
aI0
aI0
aI0
aI3
aI0
aa(lp869
I0
aI0
aI0
aI0
aI0
aI0
aI0
aI0
aI0
aI0
aI0
aI0
aI0
aI0
aI0
aI0
aI0
aI0
aI0
aI0
aI0
aI0
aI0
aI0
aI0
aI0
aI0
aI0
aI0
aI0
aI0
aI0
aI0
aa(lp870
I0
aI0
aI0
aI0
aI0
aI0
aI0
aI0
aI0
aI0
aI0
aI0
aI0
aI0
aI0
aI0
aI0
aI0
aI0
aI0
aI0
aI0
aI0
aI0
aI0
aI0
aI0
aI0
aI0
aI0
aI0
aI0
aI0
aa(lp871
I0
aI0
aI0
aI0
aI0
aI0
aI0
aI0
aI0
aI0
aI1
aI0
aI0
aI1
aI0
aI34
aI5
aI1
aI32
aI0
aI0
aI0
aI0
aI1
aI0
aI29
aI0
aI0
aI0
aI0
aI48
aI0
aI0
aa(lp872
I0
aI0
aI0
aI0
aI0
aI0
aI0
aI0
aI0
aI0
aI0
aI0
aI0
aI0
aI0
aI0
aI0
aI0
aI0
aI0
aI0
aI0
aI0
aI0
aI0
aI0
aI0
aI0
aI0
aI0
aI0
aI0
aI0
aa(lp873
I0
aI0
aI0
aI0
aI0
aI0
aI0
aI0
aI0
aI0
aI0
aI0
aI0
aI0
aI0
aI0
aI0
aI0
aI0
aI0
aI0
aI0
aI0
aI0
aI0
aI0
aI0
aI0
aI0
aI0
aI0
aI0
aI0
aa(lp874
I0
aI0
aI0
aI0
aI0
aI0
aI0
aI0
aI0
aI0
aI0
aI0
aI0
aI0
aI0
aI0
aI0
aI0
aI0
aI0
aI0
aI0
aI0
aI0
aI0
aI0
aI0
aI0
aI0
aI0
aI0
aI0
aI0
aa(lp875
I0
aI0
aI0
aI0
aI0
aI0
aI0
aI0
aI0
aI0
aI0
aI0
aI0
aI0
aI0
aI0
aI0
aI0
aI0
aI0
aI0
aI0
aI0
aI0
aI0
aI0
aI0
aI0
aI0
aI0
aI0
aI0
aI0
aa(lp876
I0
aI0
aI0
aI0
aI0
aI0
aI0
aI0
aI0
aI0
aI0
aI0
aI0
aI0
aI0
aI0
aI0
aI0
aI0
aI0
aI0
aI0
aI0
aI0
aI0
aI0
aI0
aI0
aI0
aI0
aI0
aI0
aI0
aa(lp877
I0
aI0
aI0
aI0
aI0
aI0
aI0
aI0
aI0
aI0
aI0
aI0
aI0
aI0
aI0
aI0
aI0
aI0
aI0
aI0
aI0
aI0
aI0
aI0
aI0
aI0
aI0
aI0
aI0
aI0
aI0
aI0
aI0
aa(lp878
I0
aI0
aI0
aI0
aI0
aI0
aI0
aI0
aI0
aI0
aI0
aI0
aI0
aI0
aI0
aI0
aI0
aI0
aI0
aI0
aI0
aI0
aI0
aI0
aI0
aI0
aI0
aI0
aI0
aI0
aI0
aI0
aI0
aa(lp879
I0
aI0
aI0
aI0
aI0
aI0
aI0
aI0
aI0
aI0
aI0
aI0
aI0
aI0
aI0
aI0
aI0
aI0
aI0
aI0
aI0
aI0
aI0
aI0
aI0
aI0
aI0
aI0
aI0
aI0
aI0
aI0
aI0
aa(lp880
I0
aI0
aI0
aI0
aI0
aI0
aI0
aI0
aI0
aI0
aI0
aI0
aI0
aI0
aI0
aI0
aI0
aI0
aI0
aI0
aI0
aI0
aI0
aI0
aI0
aI0
aI0
aI0
aI0
aI0
aI36
aI0
aI0
aa(lp881
I0
aI0
aI0
aI0
aI0
aI0
aI0
aI0
aI0
aI0
aI0
aI0
aI0
aI0
aI0
aI0
aI0
aI0
aI0
aI0
aI0
aI0
aI0
aI0
aI0
aI0
aI0
aI0
aI0
aI0
aI0
aI0
aI0
aa(lp882
I0
aI0
aI0
aI0
aI0
aI0
aI0
aI0
aI0
aI0
aI0
aI0
aI0
aI0
aI0
aI0
aI0
aI0
aI0
aI0
aI0
aI0
aI0
aI0
aI0
aI0
aI0
aI0
aI0
aI0
aI0
aI0
aI0
aa(lp883
I0
aI0
aI0
aI0
aI0
aI0
aI0
aI0
aI0
aI0
aI0
aI0
aI0
aI0
aI0
aI0
aI0
aI0
aI0
aI0
aI0
aI0
aI0
aI0
aI0
aI0
aI0
aI0
aI0
aI0
aI0
aI0
aI0
aa(lp884
I0
aI0
aI0
aI0
aI0
aI0
aI0
aI0
aI0
aI0
aI0
aI0
aI0
aI0
aI0
aI0
aI0
aI0
aI0
aI0
aI0
aI0
aI0
aI0
aI0
aI0
aI0
aI0
aI0
aI0
aI0
aI0
aI0
aaa(lp885
(lp886
I0
aI0
aI0
aI0
aI0
aI0
aI0
aI0
aI0
aI0
aI0
aI0
aI0
aI0
aI0
aI0
aI0
aI0
aI0
aI0
aI0
aI0
aI0
aI0
aI0
aI0
aI0
aI0
aI0
aI0
aI0
aI0
aI0
aa(lp887
I0
aI0
aI0
aI0
aI0
aI0
aI0
aI0
aI0
aI0
aI0
aI0
aI0
aI0
aI0
aI0
aI0
aI0
aI0
aI0
aI0
aI0
aI0
aI0
aI0
aI0
aI0
aI0
aI0
aI0
aI0
aI0
aI0
aa(lp888
I0
aI0
aI0
aI0
aI0
aI0
aI0
aI0
aI0
aI0
aI0
aI0
aI0
aI0
aI0
aI0
aI0
aI0
aI0
aI0
aI0
aI0
aI0
aI0
aI0
aI0
aI0
aI0
aI0
aI0
aI0
aI0
aI0
aa(lp889
I0
aI0
aI0
aI0
aI0
aI0
aI0
aI0
aI0
aI0
aI0
aI0
aI0
aI0
aI0
aI0
aI0
aI0
aI0
aI0
aI0
aI0
aI0
aI0
aI0
aI0
aI0
aI0
aI0
aI0
aI0
aI0
aI0
aa(lp890
I0
aI0
aI0
aI0
aI0
aI0
aI0
aI0
aI0
aI0
aI0
aI0
aI0
aI0
aI0
aI0
aI0
aI0
aI0
aI0
aI0
aI0
aI0
aI0
aI0
aI0
aI0
aI0
aI0
aI0
aI0
aI0
aI0
aa(lp891
I0
aI0
aI0
aI0
aI16
aI0
aI4
aI28
aI0
aI0
aI28
aI6
aI21
aI0
aI0
aI0
aI0
aI2
aI0
aI0
aI0
aI43
aI0
aI0
aI1
aI0
aI0
aI0
aI0
aI0
aI0
aI0
aI0
aa(lp892
I0
aI0
aI0
aI0
aI0
aI0
aI0
aI0
aI0
aI0
aI0
aI0
aI0
aI0
aI0
aI0
aI0
aI0
aI0
aI0
aI0
aI0
aI0
aI0
aI0
aI0
aI0
aI0
aI0
aI0
aI0
aI0
aI0
aa(lp893
I0
aI0
aI0
aI0
aI0
aI0
aI0
aI0
aI0
aI0
aI0
aI0
aI0
aI0
aI0
aI0
aI0
aI0
aI0
aI0
aI0
aI0
aI0
aI0
aI0
aI0
aI0
aI0
aI0
aI0
aI0
aI0
aI0
aa(lp894
I0
aI0
aI0
aI0
aI0
aI0
aI0
aI0
aI0
aI0
aI0
aI0
aI0
aI0
aI0
aI0
aI0
aI0
aI0
aI0
aI0
aI0
aI0
aI0
aI0
aI0
aI0
aI0
aI0
aI0
aI0
aI0
aI0
aa(lp895
I0
aI0
aI0
aI0
aI0
aI0
aI0
aI0
aI0
aI0
aI0
aI0
aI0
aI0
aI0
aI0
aI0
aI0
aI0
aI0
aI0
aI0
aI0
aI0
aI0
aI0
aI0
aI0
aI0
aI0
aI0
aI0
aI0
aa(lp896
I0
aI0
aI0
aI0
aI0
aI0
aI0
aI0
aI0
aI0
aI0
aI0
aI0
aI0
aI0
aI0
aI0
aI0
aI0
aI0
aI0
aI0
aI0
aI0
aI0
aI0
aI0
aI0
aI0
aI0
aI0
aI0
aI0
aa(lp897
I0
aI0
aI0
aI0
aI0
aI0
aI0
aI0
aI0
aI0
aI0
aI0
aI0
aI0
aI0
aI0
aI0
aI0
aI0
aI0
aI0
aI0
aI0
aI0
aI0
aI0
aI0
aI0
aI0
aI0
aI0
aI0
aI0
aa(lp898
I0
aI0
aI0
aI0
aI0
aI0
aI0
aI0
aI0
aI0
aI0
aI0
aI0
aI0
aI0
aI0
aI0
aI0
aI0
aI0
aI0
aI0
aI0
aI0
aI0
aI0
aI0
aI0
aI0
aI0
aI0
aI0
aI0
aa(lp899
I0
aI0
aI0
aI0
aI0
aI0
aI0
aI0
aI0
aI0
aI0
aI0
aI0
aI0
aI0
aI0
aI0
aI0
aI0
aI0
aI0
aI0
aI0
aI0
aI0
aI0
aI0
aI0
aI0
aI0
aI0
aI0
aI0
aa(lp900
I0
aI0
aI0
aI0
aI0
aI0
aI0
aI0
aI0
aI0
aI0
aI0
aI0
aI0
aI0
aI0
aI0
aI0
aI0
aI0
aI0
aI0
aI0
aI0
aI0
aI0
aI0
aI0
aI0
aI0
aI0
aI0
aI0
aa(lp901
I0
aI0
aI0
aI0
aI0
aI0
aI0
aI0
aI0
aI0
aI0
aI0
aI0
aI0
aI0
aI0
aI0
aI0
aI0
aI0
aI0
aI0
aI0
aI0
aI0
aI0
aI0
aI0
aI0
aI0
aI0
aI0
aI0
aa(lp902
I0
aI0
aI0
aI0
aI0
aI0
aI0
aI0
aI0
aI0
aI0
aI0
aI0
aI0
aI0
aI0
aI0
aI0
aI0
aI0
aI0
aI0
aI0
aI0
aI0
aI0
aI0
aI0
aI0
aI0
aI0
aI0
aI0
aa(lp903
I0
aI0
aI0
aI0
aI0
aI0
aI0
aI0
aI0
aI0
aI0
aI0
aI0
aI0
aI0
aI0
aI0
aI0
aI0
aI0
aI0
aI0
aI0
aI0
aI0
aI0
aI0
aI0
aI0
aI0
aI0
aI0
aI0
aa(lp904
I0
aI0
aI0
aI0
aI0
aI0
aI0
aI0
aI0
aI0
aI0
aI0
aI0
aI0
aI0
aI0
aI0
aI0
aI0
aI0
aI0
aI0
aI0
aI0
aI0
aI0
aI0
aI0
aI0
aI0
aI0
aI0
aI0
aa(lp905
I0
aI0
aI0
aI0
aI0
aI0
aI0
aI0
aI0
aI0
aI0
aI0
aI0
aI0
aI0
aI0
aI0
aI0
aI0
aI0
aI0
aI0
aI0
aI0
aI0
aI0
aI0
aI0
aI0
aI0
aI0
aI0
aI0
aa(lp906
I0
aI0
aI0
aI0
aI0
aI0
aI0
aI0
aI0
aI0
aI0
aI0
aI0
aI0
aI0
aI0
aI0
aI0
aI0
aI0
aI0
aI0
aI0
aI0
aI0
aI0
aI0
aI0
aI0
aI0
aI0
aI0
aI0
aa(lp907
I0
aI0
aI0
aI0
aI0
aI0
aI0
aI0
aI0
aI0
aI0
aI0
aI0
aI0
aI0
aI0
aI0
aI0
aI0
aI0
aI0
aI0
aI0
aI0
aI0
aI0
aI0
aI0
aI0
aI0
aI0
aI0
aI0
aa(lp908
I0
aI0
aI0
aI0
aI0
aI0
aI0
aI0
aI0
aI0
aI0
aI0
aI0
aI0
aI0
aI0
aI0
aI0
aI0
aI0
aI0
aI0
aI0
aI0
aI0
aI0
aI0
aI0
aI0
aI0
aI0
aI0
aI0
aa(lp909
I0
aI0
aI0
aI0
aI0
aI0
aI0
aI0
aI0
aI0
aI0
aI0
aI0
aI0
aI0
aI0
aI0
aI0
aI0
aI0
aI0
aI0
aI0
aI0
aI0
aI0
aI0
aI0
aI0
aI0
aI0
aI0
aI0
aa(lp910
I0
aI0
aI0
aI0
aI0
aI0
aI0
aI0
aI0
aI0
aI0
aI0
aI0
aI0
aI0
aI0
aI0
aI0
aI0
aI0
aI0
aI0
aI0
aI0
aI0
aI0
aI0
aI0
aI0
aI0
aI0
aI0
aI0
aa(lp911
I0
aI0
aI0
aI0
aI0
aI0
aI0
aI0
aI0
aI0
aI0
aI0
aI0
aI0
aI0
aI0
aI0
aI0
aI0
aI0
aI0
aI0
aI0
aI0
aI0
aI0
aI0
aI0
aI0
aI0
aI0
aI0
aI0
aa(lp912
I0
aI0
aI0
aI0
aI0
aI0
aI0
aI0
aI0
aI0
aI0
aI0
aI0
aI0
aI0
aI0
aI0
aI0
aI0
aI0
aI0
aI0
aI0
aI0
aI0
aI0
aI0
aI0
aI0
aI0
aI0
aI0
aI0
aa(lp913
I0
aI0
aI0
aI0
aI0
aI0
aI0
aI0
aI0
aI0
aI0
aI0
aI0
aI0
aI0
aI0
aI0
aI0
aI0
aI0
aI0
aI0
aI0
aI0
aI0
aI0
aI0
aI0
aI0
aI0
aI0
aI0
aI0
aa(lp914
I0
aI0
aI0
aI0
aI0
aI0
aI0
aI0
aI0
aI0
aI0
aI0
aI0
aI0
aI0
aI0
aI0
aI0
aI0
aI0
aI0
aI0
aI0
aI0
aI0
aI0
aI0
aI0
aI0
aI0
aI0
aI0
aI0
aa(lp915
I0
aI0
aI0
aI0
aI0
aI0
aI0
aI0
aI0
aI0
aI0
aI0
aI0
aI0
aI0
aI0
aI0
aI0
aI0
aI0
aI0
aI0
aI0
aI0
aI0
aI0
aI0
aI0
aI0
aI0
aI0
aI0
aI0
aa(lp916
I0
aI0
aI0
aI0
aI0
aI0
aI0
aI0
aI0
aI0
aI0
aI0
aI0
aI1
aI0
aI0
aI0
aI0
aI0
aI0
aI0
aI0
aI0
aI0
aI0
aI0
aI0
aI0
aI0
aI0
aI0
aI0
aI0
aa(lp917
I0
aI0
aI30
aI0
aI0
aI0
aI0
aI1
aI0
aI0
aI0
aI1
aI0
aI1
aI0
aI0
aI2
aI80
aI13
aI0
aI0
aI0
aI0
aI0
aI0
aI0
aI0
aI0
aI0
aI0
aI0
aI0
aI0
aa(lp918
I0
aI0
aI0
aI0
aI0
aI0
aI0
aI0
aI0
aI0
aI0
aI0
aI0
aI0
aI0
aI0
aI0
aI0
aI0
aI0
aI0
aI0
aI0
aI0
aI0
aI0
aI0
aI0
aI0
aI0
aI0
aI0
aI0
aaa(lp919
(lp920
I0
aI0
aI0
aI0
aI0
aI0
aI0
aI0
aI0
aI0
aI0
aI0
aI0
aI0
aI0
aI0
aI0
aI0
aI0
aI0
aI0
aI0
aI0
aI0
aI0
aI0
aI0
aI0
aI0
aI0
aI0
aI0
aI0
aa(lp921
I39
aI0
aI0
aI0
aI0
aI14
aI0
aI0
aI34
aI0
aI71
aI0
aI0
aI77
aI39
aI0
aI132
aI0
aI0
aI1
aI0
aI0
aI0
aI3
aI0
aI0
aI0
aI2
aI0
aI0
aI0
aI0
aI0
aa(lp922
I985
aI0
aI0
aI0
aI0
aI64
aI0
aI0
aI3
aI0
aI10
aI0
aI0
aI36
aI38
aI0
aI0
aI0
aI0
aI3
aI0
aI0
aI0
aI13
aI37
aI0
aI0
aI13
aI0
aI0
aI0
aI1
aI0
aa(lp923
I14
aI0
aI0
aI0
aI0
aI0
aI0
aI0
aI3
aI0
aI0
aI94
aI0
aI73
aI20
aI0
aI33
aI0
aI0
aI1
aI0
aI0
aI0
aI0
aI0
aI0
aI0
aI0
aI0
aI0
aI0
aI0
aI0
aa(lp924
I81
aI0
aI7
aI0
aI0
aI46
aI0
aI0
aI4
aI0
aI0
aI2
aI0
aI5
aI14
aI0
aI3
aI0
aI0
aI9
aI0
aI0
aI0
aI0
aI0
aI0
aI0
aI0
aI0
aI0
aI0
aI0
aI0
aa(lp925
I0
aI0
aI0
aI0
aI2
aI0
aI0
aI9
aI0
aI0
aI0
aI0
aI0
aI0
aI0
aI0
aI0
aI0
aI0
aI0
aI0
aI21
aI0
aI0
aI0
aI0
aI0
aI0
aI0
aI0
aI0
aI0
aI0
aa(lp926
I2
aI0
aI0
aI0
aI2
aI10
aI1
aI0
aI30
aI0
aI13
aI0
aI1
aI5
aI3
aI0
aI0
aI0
aI0
aI1
aI0
aI0
aI0
aI0
aI0
aI0
aI0
aI0
aI0
aI0
aI0
aI0
aI0
aa(lp927
I0
aI0
aI38
aI19
aI2
aI5
aI1
aI0
aI0
aI0
aI0
aI2
aI0
aI8
aI17
aI0
aI0
aI0
aI1
aI2
aI0
aI0
aI0
aI0
aI0
aI0
aI0
aI24
aI0
aI0
aI0
aI0
aI0
aa(lp928
I0
aI0
aI0
aI14
aI0
aI0
aI0
aI0
aI0
aI0
aI0
aI0
aI0
aI0
aI0
aI0
aI0
aI0
aI0
aI0
aI0
aI0
aI0
aI0
aI0
aI0
aI0
aI0
aI0
aI0
aI0
aI0
aI0
aa(lp929
I0
aI0
aI0
aI0
aI32
aI0
aI0
aI0
aI0
aI0
aI0
aI0
aI0
aI0
aI0
aI0
aI0
aI0
aI25
aI0
aI0
aI0
aI0
aI0
aI0
aI0
aI0
aI0
aI0
aI0
aI0
aI0
aI0
aa(lp930
I82
aI0
aI1
aI0
aI0
aI22
aI0
aI0
aI19
aI0
aI0
aI63
aI0
aI23
aI21
aI0
aI26
aI0
aI0
aI7
aI0
aI0
aI0
aI0
aI0
aI0
aI0
aI0
aI0
aI0
aI0
aI0
aI0
aa(lp931
I386
aI0
aI0
aI0
aI0
aI56
aI0
aI0
aI385
aI0
aI65
aI0
aI0
aI0
aI974
aI0
aI0
aI44
aI0
aI5
aI0
aI0
aI0
aI0
aI0
aI0
aI0
aI9
aI78
aI0
aI0
aI18
aI0
aa(lp932
I35
aI0
aI0
aI0
aI0
aI6
aI0
aI0
aI382
aI0
aI0
aI0
aI0
aI0
aI28
aI0
aI1
aI0
aI0
aI6
aI0
aI0
aI0
aI0
aI0
aI0
aI0
aI5
aI0
aI0
aI0
aI12
aI0
aa(lp933
I2
aI0
aI0
aI0
aI0
aI27
aI0
aI0
aI0
aI0
aI9
aI0
aI0
aI5
aI15
aI0
aI0
aI0
aI0
aI49
aI0
aI0
aI0
aI15
aI0
aI0
aI0
aI8
aI4
aI0
aI3
aI1
aI0
aa(lp934
I0
aI0
aI0
aI0
aI0
aI0
aI0
aI0
aI0
aI0
aI0
aI0
aI0
aI0
aI0
aI0
aI0
aI0
aI0
aI0
aI0
aI0
aI0
aI0
aI0
aI0
aI0
aI0
aI0
aI0
aI0
aI0
aI0
aa(lp935
I72
aI0
aI0
aI0
aI0
aI4
aI0
aI0
aI81
aI0
aI0
aI24
aI0
aI2
aI75
aI0
aI20
aI0
aI0
aI48
aI0
aI0
aI0
aI0
aI0
aI0
aI0
aI1
aI17
aI0
aI0
aI3
aI0
aa(lp936
I55
aI0
aI29
aI0
aI0
aI55
aI0
aI0
aI14
aI0
aI29
aI0
aI0
aI85
aI23
aI0
aI0
aI0
aI0
aI40
aI0
aI0
aI0
aI0
aI0
aI0
aI0
aI8
aI13
aI0
aI0
aI19
aI0
aa(lp937
I63
aI0
aI6
aI0
aI0
aI8
aI0
aI0
aI13
aI0
aI158
aI275
aI3
aI3
aI100
aI3
aI0
aI0
aI451
aI11
aI0
aI2
aI0
aI2
aI10
aI0
aI0
aI26
aI6
aI0
aI0
aI65
aI0
aa(lp938
I323
aI0
aI0
aI0
aI0
aI17
aI0
aI0
aI83
aI0
aI35
aI1
aI0
aI31
aI52
aI0
aI8
aI19
aI0
aI15
aI0
aI0
aI0
aI1
aI0
aI0
aI0
aI78
aI342
aI0
aI0
aI29
aI0
aa(lp939
I0
aI0
aI0
aI0
aI3
aI0
aI0
aI0
aI0
aI0
aI0
aI0
aI0
aI0
aI0
aI0
aI0
aI0
aI0
aI0
aI0
aI0
aI0
aI7
aI0
aI0
aI0
aI0
aI0
aI0
aI0
aI0
aI0
aa(lp940
I0
aI0
aI0
aI0
aI0
aI0
aI0
aI0
aI0
aI0
aI0
aI0
aI0
aI0
aI0
aI0
aI0
aI0
aI0
aI0
aI0
aI0
aI0
aI0
aI0
aI0
aI0
aI0
aI0
aI0
aI0
aI0
aI0
aa(lp941
I51
aI0
aI15
aI0
aI0
aI1
aI0
aI0
aI11
aI0
aI0
aI2
aI0
aI43
aI155
aI0
aI0
aI0
aI12
aI0
aI0
aI0
aI0
aI0
aI0
aI0
aI0
aI0
aI0
aI0
aI0
aI0
aI0
aa(lp942
I1
aI0
aI0
aI0
aI0
aI0
aI0
aI0
aI0
aI0
aI0
aI0
aI0
aI0
aI0
aI0
aI0
aI0
aI0
aI0
aI0
aI0
aI0
aI0
aI0
aI0
aI0
aI0
aI0
aI0
aI0
aI0
aI0
aa(lp943
I82
aI0
aI0
aI0
aI0
aI11
aI0
aI0
aI18
aI0
aI61
aI1
aI0
aI90
aI5
aI0
aI0
aI0
aI3
aI5
aI0
aI0
aI0
aI0
aI0
aI0
aI0
aI0
aI1
aI0
aI0
aI0
aI0
aa(lp944
I270
aI0
aI2
aI0
aI0
aI154
aI0
aI0
aI31
aI0
aI76
aI113
aI0
aI23
aI1
aI0
aI0
aI0
aI0
aI31
aI0
aI0
aI4
aI0
aI0
aI0
aI0
aI0
aI0
aI0
aI0
aI0
aI0
aa(lp945
I0
aI0
aI0
aI0
aI0
aI7
aI0
aI0
aI5
aI0
aI0
aI0
aI0
aI0
aI0
aI0
aI0
aI0
aI0
aI9
aI0
aI0
aI0
aI0
aI0
aI0
aI0
aI0
aI0
aI0
aI0
aI0
aI0
aa(lp946
I0
aI0
aI0
aI0
aI0
aI0
aI0
aI0
aI0
aI0
aI0
aI0
aI0
aI0
aI0
aI0
aI0
aI0
aI0
aI0
aI0
aI0
aI0
aI0
aI0
aI0
aI0
aI0
aI0
aI0
aI0
aI0
aI0
aa(lp947
I0
aI0
aI0
aI0
aI0
aI0
aI0
aI0
aI0
aI0
aI0
aI0
aI0
aI0
aI0
aI0
aI0
aI0
aI0
aI0
aI0
aI0
aI0
aI0
aI0
aI0
aI0
aI0
aI0
aI0
aI0
aI0
aI0
aa(lp948
I0
aI0
aI0
aI0
aI0
aI0
aI0
aI0
aI0
aI0
aI0
aI0
aI0
aI0
aI0
aI0
aI0
aI0
aI0
aI0
aI0
aI0
aI0
aI0
aI0
aI0
aI0
aI0
aI0
aI0
aI0
aI0
aI0
aa(lp949
I0
aI0
aI0
aI0
aI0
aI0
aI0
aI0
aI0
aI0
aI0
aI0
aI0
aI0
aI0
aI0
aI0
aI0
aI0
aI0
aI0
aI0
aI0
aI0
aI0
aI0
aI0
aI0
aI0
aI0
aI0
aI0
aI0
aa(lp950
I0
aI0
aI0
aI0
aI0
aI0
aI0
aI0
aI0
aI0
aI0
aI0
aI0
aI0
aI0
aI0
aI0
aI0
aI0
aI0
aI0
aI0
aI0
aI0
aI0
aI0
aI0
aI0
aI0
aI0
aI0
aI0
aI0
aa(lp951
I0
aI0
aI4
aI0
aI0
aI0
aI0
aI0
aI0
aI0
aI0
aI0
aI0
aI0
aI0
aI0
aI0
aI59
aI0
aI0
aI0
aI0
aI0
aI0
aI0
aI0
aI0
aI0
aI0
aI0
aI0
aI0
aI0
aa(lp952
I0
aI0
aI0
aI0
aI0
aI0
aI0
aI0
aI0
aI0
aI0
aI0
aI0
aI0
aI0
aI0
aI0
aI0
aI0
aI0
aI0
aI0
aI0
aI0
aI0
aI0
aI0
aI0
aI0
aI0
aI0
aI0
aI0
aaa(lp953
(lp954
I0
aI0
aI0
aI0
aI0
aI0
aI0
aI0
aI0
aI0
aI0
aI0
aI0
aI0
aI0
aI0
aI0
aI0
aI0
aI0
aI0
aI0
aI0
aI0
aI0
aI0
aI0
aI0
aI0
aI0
aI0
aI0
aI0
aa(lp955
I15
aI0
aI0
aI0
aI0
aI9
aI0
aI0
aI0
aI0
aI0
aI0
aI0
aI0
aI2
aI0
aI0
aI0
aI0
aI19
aI0
aI0
aI0
aI0
aI0
aI0
aI0
aI22
aI0
aI0
aI0
aI0
aI0
aa(lp956
I2
aI0
aI0
aI0
aI0
aI0
aI0
aI0
aI0
aI0
aI0
aI0
aI0
aI0
aI1
aI0
aI0
aI0
aI0
aI0
aI0
aI0
aI0
aI0
aI0
aI0
aI0
aI0
aI0
aI0
aI0
aI0
aI0
aa(lp957
I20
aI0
aI0
aI0
aI0
aI0
aI0
aI0
aI113
aI0
aI0
aI0
aI0
aI0
aI0
aI0
aI0
aI0
aI0
aI0
aI0
aI0
aI0
aI0
aI0
aI0
aI0
aI0
aI0
aI0
aI0
aI0
aI0
aa(lp958
I3
aI0
aI0
aI0
aI0
aI29
aI0
aI0
aI6
aI0
aI0
aI0
aI0
aI0
aI5
aI0
aI3
aI0
aI0
aI0
aI0
aI0
aI0
aI0
aI0
aI0
aI0
aI0
aI0
aI0
aI0
aI1
aI0
aa(lp959
I0
aI0
aI16
aI7
aI1
aI0
aI0
aI36
aI0
aI13
aI0
aI0
aI33
aI2
aI0
aI0
aI43
aI2
aI19
aI0
aI0
aI0
aI2
aI0
aI8
aI0
aI0
aI0
aI0
aI0
aI0
aI0
aI0
aa(lp960
I0
aI0
aI0
aI0
aI0
aI0
aI0
aI0
aI0
aI0
aI0
aI0
aI0
aI0
aI0
aI0
aI0
aI0
aI0
aI0
aI0
aI0
aI0
aI0
aI0
aI0
aI0
aI0
aI0
aI0
aI0
aI0
aI0
aa(lp961
I1
aI0
aI0
aI0
aI0
aI1
aI0
aI0
aI5
aI0
aI28
aI0
aI0
aI34
aI93
aI0
aI0
aI0
aI0
aI36
aI0
aI0
aI0
aI0
aI0
aI0
aI0
aI4
aI0
aI0
aI0
aI78
aI0
aa(lp962
I0
aI0
aI0
aI0
aI0
aI0
aI0
aI0
aI0
aI0
aI0
aI0
aI5
aI0
aI0
aI0
aI0
aI0
aI0
aI0
aI0
aI1
aI6
aI0
aI4
aI0
aI0
aI0
aI0
aI0
aI0
aI0
aI0
aa(lp963
I0
aI0
aI0
aI0
aI0
aI0
aI0
aI0
aI0
aI0
aI0
aI0
aI0
aI0
aI0
aI0
aI0
aI0
aI0
aI0
aI0
aI0
aI0
aI0
aI0
aI0
aI0
aI0
aI0
aI0
aI0
aI0
aI0
aa(lp964
I87
aI0
aI0
aI0
aI0
aI4
aI0
aI0
aI114
aI0
aI0
aI0
aI0
aI16
aI1271
aI0
aI0
aI0
aI0
aI125
aI0
aI0
aI0
aI0
aI0
aI0
aI0
aI0
aI0
aI0
aI0
aI0
aI0
aa(lp965
I0
aI0
aI0
aI0
aI0
aI0
aI0
aI0
aI0
aI0
aI0
aI0
aI0
aI0
aI0
aI0
aI0
aI0
aI0
aI0
aI0
aI0
aI0
aI0
aI0
aI0
aI0
aI0
aI0
aI0
aI0
aI0
aI0
aa(lp966
I75
aI0
aI0
aI0
aI0
aI40
aI0
aI0
aI40
aI0
aI0
aI0
aI0
aI0
aI16
aI0
aI0
aI0
aI0
aI36
aI0
aI0
aI0
aI0
aI0
aI0
aI0
aI20
aI0
aI0
aI0
aI2
aI0
aa(lp967
I85
aI0
aI0
aI0
aI0
aI65
aI0
aI0
aI97
aI0
aI0
aI0
aI0
aI0
aI1105
aI0
aI0
aI0
aI0
aI92
aI0
aI0
aI0
aI0
aI0
aI0
aI0
aI530
aI0
aI0
aI4
aI0
aI0
aa(lp968
I0
aI0
aI0
aI0
aI0
aI0
aI0
aI0
aI0
aI0
aI0
aI0
aI0
aI11
aI0
aI0
aI0
aI0
aI0
aI0
aI0
aI0
aI0
aI0
aI0
aI0
aI0
aI0
aI0
aI0
aI0
aI0
aI0
aa(lp969
I0
aI0
aI0
aI0
aI0
aI0
aI0
aI0
aI1
aI0
aI0
aI0
aI0
aI0
aI0
aI0
aI0
aI0
aI0
aI0
aI0
aI0
aI0
aI0
aI0
aI0
aI0
aI0
aI0
aI0
aI0
aI0
aI0
aa(lp970
I0
aI0
aI0
aI0
aI0
aI0
aI0
aI0
aI0
aI0
aI0
aI0
aI0
aI0
aI0
aI0
aI0
aI0
aI0
aI0
aI0
aI0
aI0
aI0
aI0
aI0
aI0
aI0
aI0
aI0
aI0
aI0
aI0
aa(lp971
I0
aI0
aI0
aI0
aI0
aI0
aI0
aI0
aI5
aI0
aI39
aI0
aI0
aI0
aI8
aI0
aI0
aI0
aI201
aI0
aI0
aI0
aI0
aI0
aI0
aI0
aI0
aI2
aI0
aI0
aI0
aI1417
aI0
aa(lp972
I50
aI0
aI0
aI0
aI0
aI84
aI0
aI0
aI3
aI0
aI0
aI0
aI0
aI2
aI12
aI0
aI12
aI0
aI0
aI17
aI0
aI0
aI0
aI0
aI0
aI0
aI0
aI1
aI0
aI0
aI0
aI0
aI0
aa(lp973
I0
aI0
aI0
aI0
aI0
aI0
aI0
aI0
aI0
aI0
aI0
aI0
aI0
aI0
aI0
aI0
aI0
aI0
aI0
aI0
aI0
aI0
aI0
aI0
aI0
aI0
aI0
aI0
aI0
aI0
aI0
aI0
aI0
aa(lp974
I5
aI0
aI0
aI0
aI0
aI0
aI0
aI0
aI5
aI0
aI0
aI0
aI0
aI0
aI3
aI0
aI0
aI0
aI0
aI5
aI0
aI0
aI0
aI0
aI0
aI0
aI0
aI0
aI0
aI0
aI0
aI0
aI0
aa(lp975
I0
aI0
aI0
aI0
aI0
aI0
aI0
aI0
aI0
aI0
aI0
aI0
aI0
aI0
aI0
aI0
aI0
aI0
aI0
aI0
aI0
aI0
aI0
aI0
aI0
aI0
aI0
aI0
aI0
aI0
aI0
aI0
aI0
aa(lp976
I79
aI0
aI0
aI0
aI0
aI86
aI0
aI0
aI0
aI0
aI0
aI0
aI0
aI0
aI23
aI0
aI0
aI0
aI0
aI3
aI0
aI0
aI0
aI0
aI0
aI0
aI0
aI57
aI0
aI0
aI0
aI0
aI0
aa(lp977
I7
aI0
aI0
aI0
aI0
aI3
aI0
aI0
aI40
aI0
aI0
aI0
aI0
aI0
aI0
aI0
aI0
aI0
aI0
aI1
aI0
aI0
aI0
aI0
aI0
aI0
aI0
aI0
aI0
aI0
aI0
aI0
aI0
aa(lp978
I34
aI0
aI0
aI0
aI0
aI478
aI0
aI0
aI110
aI0
aI0
aI0
aI0
aI0
aI126
aI0
aI0
aI0
aI0
aI35
aI0
aI0
aI0
aI0
aI0
aI0
aI0
aI0
aI0
aI0
aI0
aI0
aI0
aa(lp979
I0
aI0
aI0
aI0
aI0
aI0
aI0
aI0
aI10
aI0
aI0
aI0
aI0
aI0
aI0
aI0
aI0
aI0
aI0
aI0
aI0
aI0
aI0
aI0
aI0
aI0
aI0
aI0
aI0
aI0
aI0
aI0
aI0
aa(lp980
I0
aI0
aI0
aI0
aI0
aI0
aI0
aI0
aI0
aI0
aI0
aI0
aI0
aI0
aI0
aI0
aI0
aI0
aI0
aI0
aI0
aI0
aI0
aI0
aI0
aI0
aI0
aI0
aI0
aI0
aI0
aI0
aI0
aa(lp981
I0
aI0
aI0
aI0
aI0
aI0
aI0
aI0
aI0
aI0
aI0
aI0
aI0
aI0
aI0
aI0
aI0
aI0
aI0
aI0
aI0
aI0
aI0
aI0
aI0
aI0
aI0
aI0
aI0
aI0
aI0
aI0
aI0
aa(lp982
I0
aI0
aI0
aI0
aI0
aI0
aI0
aI0
aI0
aI0
aI0
aI0
aI0
aI0
aI0
aI0
aI0
aI0
aI0
aI0
aI0
aI0
aI0
aI0
aI0
aI0
aI0
aI0
aI0
aI0
aI0
aI0
aI0
aa(lp983
I0
aI0
aI0
aI0
aI0
aI0
aI0
aI0
aI0
aI0
aI0
aI0
aI0
aI0
aI0
aI0
aI0
aI0
aI0
aI0
aI0
aI0
aI0
aI0
aI0
aI0
aI0
aI0
aI0
aI0
aI0
aI0
aI0
aa(lp984
I0
aI0
aI0
aI1
aI0
aI0
aI0
aI0
aI1
aI0
aI0
aI1
aI0
aI0
aI0
aI0
aI0
aI2
aI92
aI0
aI3
aI0
aI0
aI2
aI0
aI3
aI0
aI0
aI0
aI0
aI0
aI0
aI0
aa(lp985
I0
aI0
aI11
aI0
aI0
aI0
aI0
aI0
aI0
aI0
aI4
aI0
aI31
aI42
aI0
aI0
aI1
aI0
aI0
aI0
aI0
aI11
aI0
aI0
aI0
aI0
aI0
aI0
aI0
aI0
aI0
aI0
aI0
aa(lp986
I0
aI0
aI0
aI0
aI0
aI0
aI0
aI0
aI0
aI0
aI0
aI0
aI0
aI0
aI0
aI0
aI0
aI0
aI0
aI0
aI0
aI0
aI0
aI0
aI0
aI0
aI0
aI0
aI0
aI0
aI0
aI0
aI0
aaa(lp987
(lp988
I0
aI0
aI0
aI0
aI0
aI0
aI0
aI0
aI0
aI0
aI0
aI0
aI0
aI0
aI0
aI0
aI0
aI0
aI0
aI0
aI0
aI0
aI0
aI0
aI0
aI0
aI0
aI0
aI0
aI0
aI0
aI0
aI0
aa(lp989
I1
aI0
aI0
aI0
aI0
aI0
aI0
aI0
aI0
aI0
aI0
aI0
aI0
aI0
aI0
aI0
aI0
aI0
aI0
aI0
aI0
aI0
aI0
aI0
aI0
aI0
aI0
aI0
aI0
aI0
aI0
aI0
aI0
aa(lp990
I1
aI0
aI0
aI0
aI0
aI0
aI0
aI0
aI0
aI0
aI0
aI0
aI0
aI0
aI0
aI0
aI0
aI0
aI0
aI0
aI0
aI0
aI0
aI0
aI0
aI0
aI0
aI0
aI0
aI0
aI0
aI0
aI0
aa(lp991
I0
aI0
aI0
aI0
aI0
aI0
aI0
aI0
aI0
aI0
aI0
aI0
aI0
aI0
aI9
aI0
aI0
aI0
aI0
aI0
aI0
aI0
aI0
aI0
aI0
aI0
aI0
aI0
aI0
aI0
aI0
aI0
aI0
aa(lp992
I0
aI0
aI0
aI0
aI2
aI0
aI0
aI0
aI0
aI0
aI0
aI0
aI0
aI0
aI0
aI0
aI0
aI0
aI0
aI0
aI0
aI0
aI0
aI0
aI0
aI0
aI0
aI0
aI0
aI0
aI0
aI0
aI0
aa(lp993
I0
aI0
aI0
aI0
aI0
aI0
aI0
aI0
aI0
aI0
aI0
aI0
aI0
aI0
aI0
aI0
aI0
aI0
aI0
aI0
aI0
aI0
aI0
aI0
aI0
aI0
aI0
aI0
aI0
aI0
aI0
aI0
aI0
aa(lp994
I0
aI0
aI0
aI0
aI0
aI0
aI0
aI0
aI0
aI0
aI0
aI0
aI0
aI0
aI0
aI0
aI0
aI0
aI0
aI0
aI0
aI0
aI0
aI0
aI0
aI0
aI0
aI0
aI0
aI0
aI0
aI0
aI0
aa(lp995
I0
aI0
aI0
aI0
aI0
aI0
aI0
aI0
aI0
aI0
aI0
aI0
aI0
aI0
aI0
aI0
aI0
aI0
aI0
aI0
aI0
aI0
aI0
aI0
aI0
aI0
aI0
aI0
aI1
aI0
aI0
aI0
aI0
aa(lp996
I0
aI0
aI0
aI0
aI0
aI0
aI0
aI0
aI0
aI0
aI0
aI0
aI0
aI0
aI0
aI0
aI0
aI0
aI0
aI0
aI0
aI0
aI0
aI0
aI0
aI0
aI0
aI0
aI0
aI0
aI0
aI0
aI0
aa(lp997
I0
aI0
aI0
aI0
aI0
aI0
aI0
aI0
aI0
aI0
aI0
aI0
aI0
aI0
aI0
aI0
aI0
aI0
aI0
aI0
aI0
aI0
aI0
aI0
aI0
aI0
aI0
aI0
aI0
aI0
aI0
aI0
aI0
aa(lp998
I1
aI0
aI1
aI0
aI0
aI0
aI0
aI22
aI26
aI0
aI0
aI0
aI0
aI0
aI25
aI0
aI68
aI25
aI0
aI0
aI0
aI0
aI0
aI0
aI0
aI0
aI0
aI0
aI0
aI0
aI0
aI0
aI0
aa(lp999
I3
aI0
aI0
aI0
aI0
aI99
aI0
aI0
aI33
aI0
aI0
aI0
aI0
aI0
aI0
aI0
aI0
aI0
aI0
aI0
aI0
aI0
aI0
aI0
aI0
aI0
aI0
aI0
aI5
aI0
aI0
aI1
aI0
aa(lp1000
I1
aI3
aI0
aI0
aI0
aI0
aI0
aI0
aI0
aI0
aI0
aI0
aI0
aI0
aI18
aI0
aI0
aI0
aI0
aI0
aI0
aI0
aI0
aI0
aI0
aI0
aI0
aI0
aI0
aI0
aI0
aI0
aI0
aa(lp1001
I0
aI0
aI0
aI0
aI0
aI54
aI2
aI0
aI0
aI0
aI0
aI0
aI0
aI0
aI0
aI0
aI0
aI0
aI24
aI0
aI0
aI0
aI0
aI0
aI0
aI0
aI0
aI0
aI0
aI0
aI0
aI0
aI0
aa(lp1002
I0
aI0
aI0
aI0
aI0
aI0
aI0
aI0
aI0
aI0
aI0
aI0
aI0
aI0
aI0
aI0
aI0
aI0
aI0
aI0
aI0
aI0
aI0
aI0
aI0
aI0
aI0
aI0
aI0
aI0
aI0
aI0
aI0
aa(lp1003
I0
aI0
aI0
aI0
aI0
aI0
aI0
aI0
aI3
aI0
aI0
aI0
aI0
aI0
aI10
aI0
aI0
aI1
aI0
aI0
aI0
aI0
aI0
aI0
aI0
aI0
aI0
aI0
aI0
aI0
aI0
aI0
aI0
aa(lp1004
I1
aI0
aI0
aI0
aI0
aI0
aI0
aI1
aI2
aI0
aI0
aI0
aI0
aI0
aI15
aI0
aI0
aI0
aI0
aI1
aI0
aI0
aI0
aI0
aI0
aI0
aI0
aI2
aI0
aI0
aI0
aI0
aI0
aa(lp1005
I0
aI0
aI0
aI0
aI0
aI0
aI0
aI0
aI0
aI0
aI20
aI0
aI0
aI0
aI0
aI17
aI0
aI0
aI2
aI0
aI0
aI0
aI0
aI0
aI0
aI0
aI0
aI0
aI0
aI0
aI0
aI0
aI0
aa(lp1006
I176
aI0
aI0
aI0
aI0
aI0
aI0
aI0
aI313
aI0
aI0
aI0
aI0
aI1
aI2641
aI0
aI0
aI8
aI0
aI115
aI0
aI0
aI0
aI0
aI0
aI0
aI0
aI1
aI0
aI0
aI0
aI0
aI0
aa(lp1007
I0
aI0
aI0
aI0
aI0
aI0
aI0
aI0
aI0
aI0
aI0
aI0
aI0
aI0
aI0
aI0
aI0
aI0
aI0
aI0
aI0
aI0
aI0
aI0
aI0
aI0
aI0
aI0
aI0
aI0
aI0
aI0
aI0
aa(lp1008
I0
aI0
aI0
aI0
aI0
aI0
aI0
aI0
aI1
aI0
aI0
aI0
aI0
aI0
aI0
aI0
aI0
aI0
aI0
aI0
aI32
aI0
aI0
aI0
aI0
aI0
aI0
aI0
aI0
aI0
aI0
aI0
aI0
aa(lp1009
I0
aI0
aI0
aI0
aI0
aI0
aI0
aI0
aI0
aI0
aI0
aI0
aI0
aI0
aI9
aI0
aI0
aI0
aI0
aI0
aI0
aI0
aI0
aI0
aI0
aI0
aI0
aI0
aI0
aI1
aI0
aI0
aI0
aa(lp1010
I0
aI0
aI0
aI0
aI0
aI0
aI0
aI0
aI0
aI0
aI0
aI0
aI0
aI0
aI0
aI0
aI0
aI0
aI0
aI0
aI0
aI0
aI0
aI0
aI0
aI0
aI0
aI0
aI0
aI0
aI0
aI0
aI0
aa(lp1011
I0
aI0
aI0
aI0
aI0
aI0
aI0
aI0
aI0
aI0
aI0
aI0
aI0
aI0
aI0
aI0
aI0
aI0
aI0
aI0
aI0
aI0
aI0
aI0
aI0
aI0
aI0
aI0
aI0
aI0
aI0
aI0
aI0
aa(lp1012
I0
aI0
aI0
aI0
aI0
aI28
aI0
aI0
aI0
aI0
aI0
aI0
aI0
aI0
aI0
aI0
aI0
aI0
aI0
aI0
aI0
aI0
aI0
aI0
aI0
aI0
aI0
aI0
aI0
aI0
aI0
aI0
aI0
aa(lp1013
I0
aI0
aI0
aI0
aI0
aI0
aI0
aI0
aI0
aI0
aI0
aI0
aI0
aI0
aI0
aI0
aI0
aI0
aI0
aI0
aI0
aI0
aI0
aI0
aI0
aI0
aI0
aI0
aI0
aI0
aI0
aI0
aI0
aa(lp1014
I0
aI0
aI0
aI0
aI0
aI0
aI0
aI0
aI0
aI0
aI0
aI0
aI0
aI0
aI0
aI0
aI0
aI0
aI0
aI0
aI0
aI0
aI0
aI0
aI0
aI0
aI0
aI0
aI0
aI0
aI0
aI0
aI0
aa(lp1015
I0
aI0
aI0
aI0
aI0
aI0
aI0
aI0
aI0
aI0
aI0
aI0
aI0
aI0
aI0
aI0
aI0
aI0
aI0
aI0
aI0
aI0
aI0
aI0
aI0
aI0
aI0
aI0
aI0
aI0
aI0
aI0
aI0
aa(lp1016
I0
aI0
aI0
aI0
aI0
aI0
aI0
aI0
aI0
aI0
aI0
aI0
aI0
aI0
aI0
aI0
aI0
aI0
aI0
aI0
aI0
aI0
aI0
aI0
aI0
aI0
aI0
aI0
aI0
aI0
aI0
aI0
aI0
aa(lp1017
I0
aI0
aI0
aI0
aI0
aI0
aI0
aI0
aI0
aI0
aI0
aI0
aI0
aI0
aI0
aI0
aI0
aI0
aI0
aI0
aI0
aI0
aI0
aI0
aI0
aI0
aI0
aI0
aI0
aI0
aI0
aI0
aI0
aa(lp1018
I0
aI0
aI0
aI0
aI0
aI0
aI0
aI0
aI0
aI0
aI0
aI0
aI0
aI0
aI0
aI0
aI0
aI0
aI0
aI0
aI0
aI0
aI0
aI0
aI0
aI0
aI0
aI0
aI0
aI0
aI0
aI0
aI0
aa(lp1019
I0
aI0
aI0
aI0
aI0
aI0
aI0
aI0
aI0
aI0
aI0
aI0
aI0
aI0
aI0
aI0
aI0
aI0
aI0
aI0
aI0
aI0
aI0
aI0
aI0
aI0
aI0
aI0
aI0
aI0
aI0
aI0
aI0
aa(lp1020
I0
aI0
aI0
aI0
aI0
aI0
aI0
aI0
aI0
aI0
aI0
aI0
aI0
aI0
aI0
aI0
aI0
aI0
aI0
aI0
aI0
aI0
aI0
aI0
aI0
aI0
aI0
aI0
aI0
aI0
aI0
aI0
aI0
aaa(lp1021
(lp1022
I0
aI0
aI0
aI0
aI0
aI0
aI0
aI0
aI0
aI0
aI0
aI0
aI0
aI1
aI0
aI0
aI1
aI0
aI0
aI0
aI0
aI0
aI0
aI0
aI0
aI0
aI0
aI0
aI0
aI0
aI0
aI0
aI0
aa(lp1023
I4
aI0
aI7
aI0
aI0
aI16
aI0
aI0
aI60
aI0
aI2
aI24
aI0
aI7
aI128
aI0
aI0
aI0
aI0
aI15
aI0
aI0
aI0
aI1
aI0
aI0
aI0
aI17
aI0
aI0
aI0
aI8
aI0
aa(lp1024
I1
aI0
aI0
aI0
aI0
aI2
aI0
aI0
aI0
aI0
aI0
aI0
aI0
aI0
aI0
aI0
aI0
aI0
aI0
aI0
aI0
aI0
aI0
aI0
aI0
aI0
aI0
aI0
aI0
aI0
aI0
aI0
aI0
aa(lp1025
I1
aI0
aI0
aI0
aI0
aI0
aI0
aI0
aI1
aI0
aI0
aI1
aI0
aI0
aI0
aI0
aI0
aI0
aI0
aI0
aI0
aI0
aI0
aI0
aI0
aI0
aI0
aI0
aI0
aI0
aI0
aI0
aI0
aa(lp1026
I223
aI0
aI0
aI0
aI0
aI93
aI1
aI0
aI109
aI0
aI4
aI0
aI0
aI7
aI6
aI0
aI0
aI1
aI0
aI23
aI0
aI0
aI3
aI0
aI0
aI0
aI0
aI0
aI15
aI0
aI0
aI15
aI0
aa(lp1027
I0
aI0
aI0
aI0
aI0
aI0
aI0
aI0
aI0
aI0
aI0
aI0
aI3
aI0
aI0
aI0
aI0
aI0
aI2
aI0
aI0
aI0
aI0
aI0
aI0
aI0
aI0
aI0
aI0
aI0
aI0
aI0
aI0
aa(lp1028
I0
aI0
aI0
aI0
aI0
aI2
aI0
aI0
aI18
aI0
aI0
aI0
aI0
aI3
aI0
aI0
aI0
aI0
aI0
aI0
aI0
aI0
aI0
aI0
aI0
aI0
aI0
aI0
aI0
aI0
aI0
aI0
aI0
aa(lp1029
I3
aI0
aI0
aI0
aI0
aI6
aI0
aI0
aI2
aI0
aI0
aI0
aI0
aI13
aI4
aI0
aI0
aI0
aI0
aI1
aI0
aI0
aI0
aI0
aI0
aI0
aI0
aI4
aI0
aI0
aI0
aI0
aI0
aa(lp1030
I0
aI0
aI0
aI0
aI0
aI0
aI0
aI0
aI0
aI0
aI0
aI0
aI0
aI0
aI0
aI0
aI0
aI0
aI1
aI0
aI0
aI0
aI0
aI0
aI0
aI0
aI0
aI0
aI0
aI0
aI0
aI0
aI0
aa(lp1031
I0
aI0
aI0
aI0
aI0
aI0
aI0
aI0
aI0
aI0
aI0
aI0
aI7
aI0
aI0
aI0
aI0
aI0
aI1
aI0
aI0
aI0
aI0
aI0
aI0
aI0
aI0
aI0
aI0
aI0
aI0
aI0
aI0
aa(lp1032
I13
aI0
aI0
aI0
aI0
aI4
aI0
aI2
aI13
aI0
aI0
aI0
aI0
aI8
aI2
aI0
aI0
aI0
aI0
aI3
aI0
aI0
aI0
aI0
aI0
aI0
aI0
aI0
aI0
aI0
aI0
aI0
aI0
aa(lp1033
I0
aI0
aI0
aI0
aI0
aI3
aI0
aI0
aI1
aI0
aI0
aI0
aI0
aI0
aI1
aI0
aI0
aI0
aI0
aI0
aI0
aI0
aI0
aI0
aI0
aI0
aI0
aI0
aI2
aI0
aI3
aI3
aI0
aa(lp1034
I6
aI0
aI0
aI0
aI0
aI10
aI0
aI0
aI5
aI0
aI7
aI0
aI0
aI0
aI14
aI0
aI0
aI0
aI0
aI1
aI0
aI0
aI0
aI1
aI0
aI0
aI0
aI5
aI0
aI0
aI0
aI0
aI0
aa(lp1035
I4
aI0
aI0
aI0
aI0
aI5
aI0
aI0
aI0
aI0
aI1
aI0
aI0
aI0
aI14
aI0
aI0
aI0
aI0
aI15
aI0
aI0
aI6
aI0
aI0
aI0
aI0
aI6
aI0
aI0
aI0
aI3
aI0
aa(lp1036
I0
aI0
aI0
aI0
aI0
aI0
aI0
aI0
aI0
aI0
aI0
aI0
aI0
aI0
aI0
aI0
aI3
aI0
aI0
aI0
aI0
aI0
aI0
aI0
aI0
aI0
aI0
aI0
aI0
aI0
aI0
aI0
aI0
aa(lp1037
I1
aI0
aI0
aI0
aI0
aI0
aI0
aI0
aI1
aI0
aI1
aI0
aI0
aI0
aI3
aI0
aI0
aI0
aI0
aI0
aI0
aI0
aI0
aI0
aI0
aI0
aI0
aI0
aI0
aI0
aI0
aI0
aI0
aa(lp1038
I3
aI0
aI0
aI0
aI0
aI23
aI0
aI0
aI5
aI0
aI2
aI0
aI0
aI2
aI7
aI2
aI0
aI0
aI2
aI1
aI0
aI0
aI0
aI0
aI0
aI0
aI0
aI5
aI53
aI0
aI0
aI1
aI0
aa(lp1039
I1
aI0
aI0
aI0
aI0
aI2
aI0
aI0
aI0
aI0
aI0
aI0
aI0
aI0
aI1
aI0
aI0
aI0
aI45
aI0
aI0
aI0
aI0
aI0
aI0
aI0
aI0
aI0
aI212
aI0
aI0
aI21
aI0
aa(lp1040
I9
aI0
aI0
aI0
aI0
aI90
aI0
aI0
aI0
aI0
aI4
aI0
aI0
aI35
aI4
aI0
aI0
aI144
aI0
aI12
aI0
aI0
aI0
aI0
aI0
aI0
aI0
aI6
aI0
aI0
aI32
aI0
aI0
aa(lp1041
I0
aI0
aI0
aI0
aI0
aI0
aI0
aI0
aI0
aI0
aI0
aI0
aI0
aI0
aI0
aI0
aI0
aI0
aI0
aI0
aI0
aI0
aI0
aI0
aI0
aI0
aI0
aI0
aI0
aI0
aI0
aI0
aI0
aa(lp1042
I0
aI0
aI0
aI0
aI0
aI0
aI0
aI0
aI0
aI0
aI0
aI0
aI0
aI0
aI0
aI0
aI0
aI0
aI0
aI0
aI3
aI0
aI0
aI0
aI0
aI0
aI0
aI0
aI0
aI0
aI0
aI1
aI0
aa(lp1043
I9
aI0
aI0
aI0
aI0
aI2
aI0
aI0
aI4
aI0
aI0
aI0
aI0
aI10
aI3
aI0
aI0
aI0
aI0
aI0
aI0
aI0
aI0
aI0
aI0
aI0
aI0
aI0
aI0
aI0
aI0
aI0
aI0
aa(lp1044
I0
aI0
aI0
aI0
aI0
aI0
aI0
aI0
aI4
aI0
aI0
aI0
aI0
aI0
aI0
aI0
aI0
aI0
aI0
aI0
aI0
aI0
aI0
aI0
aI0
aI0
aI0
aI0
aI0
aI0
aI0
aI0
aI0
aa(lp1045
I72
aI0
aI0
aI0
aI0
aI72
aI0
aI0
aI208
aI0
aI19
aI0
aI0
aI0
aI14
aI0
aI0
aI0
aI0
aI3
aI0
aI0
aI0
aI0
aI0
aI0
aI0
aI0
aI0
aI0
aI0
aI0
aI0
aa(lp1046
I0
aI0
aI0
aI0
aI0
aI8
aI0
aI0
aI0
aI0
aI7
aI0
aI0
aI3
aI2
aI0
aI0
aI0
aI0
aI0
aI0
aI0
aI0
aI0
aI0
aI0
aI0
aI0
aI0
aI0
aI0
aI0
aI0
aa(lp1047
I47
aI0
aI0
aI0
aI0
aI196
aI0
aI0
aI304
aI0
aI0
aI0
aI0
aI0
aI0
aI0
aI0
aI0
aI0
aI23
aI0
aI0
aI0
aI0
aI0
aI0
aI0
aI0
aI0
aI0
aI0
aI0
aI0
aa(lp1048
I0
aI0
aI0
aI0
aI0
aI0
aI0
aI0
aI0
aI0
aI0
aI0
aI0
aI0
aI0
aI0
aI0
aI0
aI0
aI0
aI0
aI0
aI0
aI0
aI0
aI0
aI0
aI0
aI0
aI0
aI0
aI0
aI0
aa(lp1049
I0
aI0
aI0
aI0
aI0
aI0
aI0
aI0
aI0
aI0
aI0
aI0
aI0
aI0
aI0
aI0
aI0
aI0
aI0
aI0
aI0
aI0
aI0
aI0
aI0
aI0
aI0
aI0
aI0
aI0
aI0
aI0
aI0
aa(lp1050
I0
aI0
aI0
aI0
aI0
aI0
aI0
aI0
aI0
aI0
aI0
aI0
aI0
aI0
aI0
aI0
aI0
aI0
aI0
aI0
aI0
aI0
aI0
aI0
aI0
aI0
aI0
aI0
aI0
aI0
aI0
aI0
aI0
aa(lp1051
I0
aI0
aI0
aI0
aI0
aI0
aI0
aI0
aI0
aI0
aI0
aI32
aI0
aI0
aI0
aI0
aI0
aI0
aI0
aI0
aI0
aI0
aI0
aI0
aI0
aI0
aI0
aI0
aI0
aI0
aI0
aI0
aI0
aa(lp1052
I0
aI0
aI0
aI0
aI0
aI0
aI0
aI0
aI0
aI0
aI0
aI0
aI0
aI0
aI0
aI0
aI0
aI0
aI4
aI0
aI0
aI0
aI0
aI0
aI0
aI1
aI0
aI0
aI0
aI0
aI0
aI0
aI0
aa(lp1053
I0
aI0
aI0
aI0
aI0
aI0
aI0
aI0
aI0
aI0
aI0
aI0
aI0
aI0
aI0
aI0
aI0
aI0
aI0
aI0
aI0
aI0
aI0
aI0
aI0
aI0
aI0
aI0
aI0
aI0
aI0
aI0
aI0
aa(lp1054
I0
aI0
aI0
aI0
aI0
aI0
aI0
aI0
aI0
aI0
aI0
aI0
aI0
aI0
aI0
aI0
aI0
aI0
aI0
aI0
aI0
aI0
aI0
aI0
aI0
aI0
aI0
aI0
aI0
aI0
aI0
aI0
aI0
aaa(lp1055
(lp1056
I0
aI0
aI0
aI0
aI0
aI0
aI0
aI0
aI0
aI0
aI0
aI0
aI0
aI0
aI0
aI0
aI0
aI0
aI0
aI0
aI0
aI0
aI0
aI0
aI0
aI0
aI0
aI0
aI0
aI0
aI0
aI0
aI0
aa(lp1057
I2
aI0
aI0
aI0
aI0
aI1
aI0
aI0
aI1
aI0
aI0
aI4
aI0
aI0
aI0
aI0
aI0
aI0
aI0
aI0
aI0
aI0
aI0
aI0
aI0
aI0
aI0
aI0
aI0
aI0
aI0
aI0
aI0
aa(lp1058
I0
aI0
aI0
aI0
aI0
aI0
aI0
aI0
aI199
aI0
aI24
aI77
aI0
aI30
aI14
aI0
aI0
aI3
aI0
aI1
aI0
aI0
aI0
aI0
aI70
aI0
aI0
aI6
aI0
aI0
aI0
aI10
aI0
aa(lp1059
I17
aI0
aI0
aI0
aI0
aI4
aI0
aI0
aI46
aI0
aI38
aI3
aI0
aI4
aI9
aI0
aI1
aI3
aI0
aI15
aI0
aI0
aI0
aI11
aI0
aI0
aI0
aI0
aI0
aI0
aI0
aI0
aI0
aa(lp1060
I39
aI0
aI0
aI0
aI0
aI146
aI0
aI0
aI47
aI0
aI56
aI0
aI0
aI11
aI227
aI0
aI1
aI0
aI0
aI14
aI0
aI0
aI0
aI0
aI0
aI0
aI0
aI76
aI3
aI0
aI1
aI60
aI0
aa(lp1061
I0
aI0
aI12
aI0
aI0
aI0
aI0
aI0
aI0
aI0
aI0
aI0
aI21
aI0
aI0
aI0
aI0
aI0
aI103
aI0
aI0
aI0
aI0
aI0
aI10
aI0
aI0
aI0
aI0
aI0
aI0
aI0
aI0
aa(lp1062
I10
aI0
aI0
aI0
aI0
aI207
aI0
aI0
aI7
aI0
aI31
aI0
aI0
aI1
aI0
aI0
aI0
aI0
aI0
aI15
aI0
aI0
aI0
aI0
aI0
aI0
aI0
aI0
aI2
aI0
aI0
aI0
aI0
aa(lp1063
I134
aI0
aI5
aI11
aI0
aI1
aI0
aI0
aI34
aI0
aI24
aI2
aI0
aI35
aI1
aI0
aI0
aI0
aI0
aI2
aI0
aI0
aI0
aI5
aI1
aI0
aI0
aI99
aI33
aI0
aI0
aI1
aI0
aa(lp1064
I0
aI0
aI0
aI0
aI0
aI0
aI0
aI0
aI0
aI0
aI0
aI0
aI0
aI33
aI0
aI0
aI0
aI0
aI0
aI0
aI0
aI0
aI0
aI1
aI0
aI0
aI0
aI0
aI0
aI0
aI0
aI0
aI0
aa(lp1065
I0
aI0
aI0
aI0
aI0
aI0
aI0
aI0
aI0
aI0
aI9
aI0
aI0
aI0
aI0
aI0
aI0
aI15
aI17
aI0
aI0
aI0
aI2
aI0
aI0
aI0
aI0
aI0
aI0
aI0
aI0
aI0
aI0
aa(lp1066
I73
aI0
aI0
aI0
aI0
aI2
aI0
aI0
aI92
aI0
aI0
aI2
aI0
aI10
aI75
aI0
aI0
aI0
aI0
aI10
aI0
aI0
aI0
aI0
aI1
aI0
aI0
aI0
aI0
aI0
aI0
aI0
aI0
aa(lp1067
I165
aI0
aI0
aI0
aI0
aI1
aI0
aI0
aI295
aI0
aI0
aI0
aI0
aI0
aI85
aI0
aI0
aI252
aI0
aI2
aI0
aI0
aI0
aI0
aI0
aI0
aI0
aI2
aI4
aI0
aI0
aI0
aI0
aa(lp1068
I1
aI0
aI0
aI0
aI0
aI2
aI0
aI0
aI201
aI0
aI8
aI4
aI0
aI0
aI112
aI0
aI0
aI2
aI0
aI8
aI0
aI0
aI1
aI0
aI0
aI0
aI0
aI4
aI3
aI0
aI0
aI0
aI0
aa(lp1069
I10
aI0
aI0
aI0
aI0
aI24
aI0
aI0
aI132
aI0
aI16
aI0
aI0
aI102
aI27
aI0
aI0
aI9
aI0
aI404
aI0
aI0
aI1
aI2
aI0
aI0
aI0
aI35
aI4
aI0
aI0
aI2
aI0
aa(lp1070
I0
aI0
aI0
aI0
aI0
aI0
aI0
aI0
aI0
aI0
aI0
aI0
aI0
aI0
aI0
aI0
aI0
aI0
aI0
aI0
aI0
aI0
aI0
aI0
aI0
aI0
aI0
aI0
aI0
aI0
aI0
aI0
aI0
aa(lp1071
I10
aI0
aI0
aI0
aI0
aI0
aI0
aI0
aI1
aI0
aI4
aI0
aI0
aI3
aI3
aI0
aI0
aI1
aI0
aI8
aI0
aI0
aI0
aI0
aI0
aI0
aI0
aI5
aI0
aI0
aI0
aI0
aI0
aa(lp1072
I6
aI0
aI0
aI0
aI2
aI1
aI0
aI0
aI1
aI0
aI25
aI5
aI1
aI17
aI34
aI0
aI0
aI1
aI0
aI2
aI0
aI0
aI0
aI5
aI0
aI0
aI0
aI1
aI0
aI0
aI0
aI0
aI0
aa(lp1073
I28
aI0
aI0
aI0
aI0
aI14
aI0
aI0
aI3
aI0
aI6
aI15
aI0
aI241
aI11
aI0
aI0
aI3
aI40
aI9
aI0
aI0
aI0
aI0
aI0
aI0
aI0
aI3
aI350
aI0
aI0
aI16
aI0
aa(lp1074
I146
aI0
aI2
aI0
aI0
aI95
aI0
aI0
aI173
aI0
aI35
aI0
aI0
aI312
aI59
aI0
aI0
aI96
aI0
aI3
aI0
aI0
aI0
aI0
aI0
aI0
aI0
aI44
aI648
aI0
aI0
aI0
aI0
aa(lp1075
I0
aI0
aI0
aI0
aI0
aI0
aI0
aI0
aI0
aI0
aI0
aI0
aI0
aI0
aI0
aI0
aI0
aI0
aI0
aI0
aI0
aI0
aI0
aI0
aI0
aI0
aI0
aI0
aI0
aI0
aI0
aI0
aI0
aa(lp1076
I0
aI0
aI0
aI0
aI0
aI0
aI0
aI0
aI0
aI0
aI0
aI0
aI0
aI0
aI0
aI0
aI0
aI0
aI0
aI0
aI0
aI0
aI0
aI0
aI0
aI0
aI0
aI0
aI0
aI0
aI0
aI0
aI0
aa(lp1077
I1
aI0
aI0
aI0
aI0
aI0
aI0
aI0
aI3
aI0
aI0
aI2
aI0
aI35
aI0
aI0
aI0
aI0
aI28
aI1
aI0
aI0
aI0
aI0
aI0
aI0
aI0
aI0
aI0
aI0
aI0
aI0
aI0
aa(lp1078
I13
aI0
aI0
aI0
aI0
aI8
aI0
aI0
aI10
aI0
aI1
aI0
aI0
aI0
aI0
aI0
aI0
aI0
aI0
aI0
aI0
aI0
aI0
aI0
aI0
aI0
aI0
aI4
aI0
aI0
aI0
aI0
aI0
aa(lp1079
I13
aI0
aI0
aI0
aI0
aI42
aI0
aI0
aI39
aI0
aI1
aI0
aI0
aI2
aI3
aI0
aI0
aI0
aI0
aI12
aI0
aI0
aI0
aI0
aI0
aI0
aI0
aI0
aI11
aI0
aI0
aI0
aI0
aa(lp1080
I0
aI0
aI0
aI0
aI0
aI1
aI0
aI0
aI1
aI0
aI6
aI1
aI0
aI7
aI0
aI0
aI0
aI0
aI0
aI0
aI0
aI0
aI0
aI0
aI0
aI0
aI0
aI0
aI0
aI0
aI0
aI0
aI0
aa(lp1081
I32
aI0
aI0
aI0
aI0
aI84
aI0
aI0
aI233
aI0
aI0
aI0
aI0
aI4
aI0
aI0
aI0
aI0
aI0
aI7
aI0
aI0
aI0
aI0
aI0
aI0
aI0
aI0
aI0
aI0
aI0
aI0
aI0
aa(lp1082
I0
aI0
aI0
aI0
aI0
aI0
aI0
aI0
aI0
aI0
aI0
aI0
aI0
aI0
aI0
aI0
aI0
aI0
aI0
aI0
aI0
aI0
aI0
aI0
aI0
aI0
aI0
aI0
aI0
aI0
aI0
aI0
aI0
aa(lp1083
I0
aI0
aI0
aI0
aI0
aI0
aI0
aI0
aI0
aI0
aI0
aI0
aI0
aI0
aI0
aI0
aI0
aI0
aI0
aI0
aI0
aI0
aI0
aI0
aI0
aI0
aI0
aI0
aI0
aI0
aI0
aI0
aI0
aa(lp1084
I0
aI0
aI0
aI0
aI0
aI0
aI0
aI0
aI0
aI0
aI0
aI0
aI0
aI0
aI0
aI0
aI0
aI0
aI0
aI0
aI0
aI0
aI0
aI0
aI0
aI0
aI0
aI0
aI0
aI0
aI0
aI0
aI0
aa(lp1085
I0
aI0
aI0
aI0
aI0
aI0
aI0
aI0
aI0
aI0
aI0
aI0
aI0
aI0
aI0
aI0
aI0
aI0
aI0
aI0
aI0
aI0
aI0
aI0
aI0
aI0
aI0
aI0
aI0
aI0
aI0
aI0
aI0
aa(lp1086
I0
aI0
aI0
aI0
aI0
aI0
aI0
aI0
aI0
aI0
aI0
aI0
aI0
aI0
aI0
aI0
aI0
aI11
aI68
aI0
aI0
aI0
aI0
aI0
aI0
aI70
aI0
aI0
aI0
aI0
aI0
aI0
aI0
aa(lp1087
I0
aI0
aI0
aI0
aI0
aI0
aI0
aI0
aI0
aI0
aI0
aI0
aI0
aI0
aI0
aI0
aI0
aI21
aI0
aI0
aI0
aI0
aI0
aI0
aI0
aI0
aI0
aI0
aI0
aI0
aI0
aI0
aI0
aa(lp1088
I0
aI0
aI0
aI0
aI0
aI0
aI0
aI0
aI0
aI0
aI0
aI0
aI0
aI0
aI0
aI0
aI0
aI0
aI0
aI0
aI0
aI0
aI0
aI0
aI0
aI0
aI0
aI0
aI0
aI0
aI0
aI0
aI0
aaa(lp1089
(lp1090
I0
aI0
aI0
aI0
aI0
aI0
aI0
aI0
aI0
aI0
aI0
aI0
aI0
aI0
aI0
aI0
aI0
aI0
aI0
aI0
aI0
aI0
aI0
aI0
aI0
aI0
aI0
aI0
aI0
aI0
aI0
aI0
aI0
aa(lp1091
I0
aI0
aI0
aI0
aI0
aI0
aI0
aI0
aI0
aI0
aI0
aI0
aI0
aI0
aI0
aI0
aI0
aI0
aI0
aI0
aI0
aI0
aI0
aI0
aI0
aI0
aI0
aI0
aI0
aI0
aI0
aI0
aI0
aa(lp1092
I0
aI0
aI0
aI0
aI0
aI0
aI0
aI0
aI0
aI0
aI0
aI0
aI0
aI0
aI0
aI0
aI0
aI0
aI0
aI0
aI0
aI0
aI0
aI0
aI0
aI0
aI0
aI0
aI0
aI0
aI0
aI0
aI0
aa(lp1093
I0
aI0
aI0
aI0
aI0
aI0
aI0
aI0
aI0
aI0
aI0
aI0
aI0
aI0
aI0
aI0
aI0
aI0
aI0
aI0
aI0
aI0
aI0
aI0
aI0
aI0
aI0
aI0
aI0
aI0
aI0
aI0
aI0
aa(lp1094
I0
aI0
aI0
aI0
aI0
aI0
aI0
aI0
aI0
aI0
aI0
aI0
aI0
aI0
aI0
aI0
aI0
aI0
aI0
aI0
aI0
aI0
aI0
aI0
aI0
aI0
aI0
aI0
aI0
aI0
aI0
aI0
aI0
aa(lp1095
I0
aI0
aI0
aI0
aI0
aI0
aI0
aI0
aI0
aI0
aI0
aI0
aI0
aI0
aI0
aI0
aI0
aI0
aI0
aI0
aI0
aI0
aI0
aI0
aI0
aI0
aI0
aI0
aI0
aI0
aI0
aI0
aI0
aa(lp1096
I0
aI0
aI0
aI0
aI0
aI0
aI0
aI0
aI0
aI0
aI0
aI0
aI0
aI0
aI0
aI0
aI0
aI0
aI0
aI0
aI0
aI0
aI0
aI0
aI0
aI0
aI0
aI0
aI0
aI0
aI0
aI0
aI0
aa(lp1097
I0
aI0
aI0
aI0
aI0
aI0
aI0
aI0
aI0
aI0
aI0
aI0
aI0
aI0
aI0
aI0
aI0
aI0
aI0
aI0
aI0
aI0
aI0
aI0
aI0
aI0
aI0
aI0
aI0
aI0
aI0
aI0
aI0
aa(lp1098
I0
aI0
aI0
aI0
aI0
aI0
aI0
aI0
aI0
aI0
aI0
aI0
aI0
aI0
aI0
aI0
aI0
aI0
aI0
aI0
aI0
aI0
aI0
aI0
aI0
aI0
aI0
aI0
aI0
aI0
aI0
aI0
aI0
aa(lp1099
I0
aI0
aI0
aI0
aI0
aI0
aI0
aI0
aI0
aI0
aI0
aI0
aI0
aI0
aI0
aI0
aI0
aI0
aI0
aI0
aI0
aI0
aI0
aI0
aI0
aI0
aI0
aI0
aI0
aI0
aI0
aI0
aI0
aa(lp1100
I0
aI0
aI0
aI0
aI0
aI0
aI0
aI0
aI0
aI0
aI0
aI0
aI0
aI0
aI0
aI0
aI0
aI0
aI0
aI0
aI0
aI0
aI0
aI0
aI0
aI0
aI0
aI0
aI0
aI0
aI0
aI0
aI0
aa(lp1101
I0
aI0
aI0
aI0
aI0
aI0
aI0
aI0
aI0
aI0
aI0
aI0
aI0
aI0
aI0
aI0
aI0
aI0
aI0
aI0
aI0
aI0
aI0
aI0
aI0
aI0
aI0
aI0
aI0
aI0
aI0
aI0
aI0
aa(lp1102
I0
aI0
aI0
aI0
aI0
aI0
aI0
aI0
aI0
aI0
aI0
aI0
aI0
aI0
aI0
aI0
aI0
aI0
aI0
aI0
aI0
aI0
aI0
aI0
aI0
aI0
aI0
aI0
aI0
aI0
aI0
aI0
aI0
aa(lp1103
I0
aI0
aI0
aI0
aI0
aI0
aI0
aI0
aI0
aI0
aI0
aI0
aI0
aI0
aI0
aI0
aI0
aI0
aI0
aI0
aI0
aI0
aI0
aI0
aI0
aI0
aI0
aI0
aI0
aI0
aI0
aI0
aI0
aa(lp1104
I0
aI0
aI0
aI0
aI0
aI0
aI0
aI0
aI0
aI0
aI0
aI0
aI0
aI0
aI0
aI0
aI0
aI0
aI0
aI0
aI0
aI0
aI0
aI0
aI0
aI0
aI0
aI0
aI0
aI0
aI0
aI0
aI0
aa(lp1105
I0
aI0
aI0
aI0
aI0
aI0
aI0
aI0
aI0
aI0
aI0
aI0
aI0
aI0
aI0
aI0
aI0
aI0
aI0
aI0
aI0
aI0
aI0
aI0
aI0
aI0
aI0
aI0
aI0
aI0
aI0
aI0
aI0
aa(lp1106
I0
aI0
aI0
aI0
aI0
aI0
aI0
aI0
aI0
aI0
aI0
aI0
aI0
aI0
aI0
aI0
aI0
aI0
aI0
aI0
aI0
aI0
aI0
aI0
aI0
aI0
aI0
aI0
aI0
aI0
aI0
aI0
aI0
aa(lp1107
I0
aI0
aI0
aI0
aI0
aI0
aI0
aI0
aI0
aI0
aI0
aI0
aI0
aI0
aI0
aI0
aI0
aI0
aI0
aI0
aI0
aI0
aI0
aI0
aI0
aI0
aI0
aI0
aI0
aI0
aI0
aI0
aI0
aa(lp1108
I0
aI0
aI0
aI0
aI0
aI0
aI0
aI0
aI0
aI0
aI0
aI0
aI0
aI0
aI0
aI0
aI0
aI0
aI0
aI0
aI0
aI0
aI0
aI0
aI0
aI0
aI0
aI0
aI0
aI0
aI0
aI0
aI0
aa(lp1109
I0
aI0
aI0
aI0
aI0
aI0
aI0
aI0
aI0
aI0
aI0
aI0
aI0
aI0
aI0
aI0
aI0
aI0
aI0
aI0
aI0
aI0
aI0
aI0
aI0
aI0
aI0
aI0
aI0
aI0
aI0
aI0
aI0
aa(lp1110
I0
aI0
aI0
aI0
aI0
aI0
aI0
aI0
aI0
aI0
aI0
aI0
aI0
aI0
aI0
aI0
aI0
aI0
aI0
aI0
aI0
aI0
aI0
aI0
aI0
aI0
aI0
aI0
aI0
aI0
aI0
aI0
aI0
aa(lp1111
I0
aI0
aI0
aI0
aI0
aI0
aI0
aI0
aI0
aI0
aI0
aI0
aI0
aI0
aI0
aI0
aI0
aI0
aI0
aI0
aI0
aI0
aI0
aI0
aI0
aI0
aI0
aI0
aI0
aI0
aI0
aI0
aI0
aa(lp1112
I0
aI0
aI0
aI0
aI0
aI0
aI0
aI0
aI0
aI0
aI0
aI0
aI0
aI0
aI0
aI0
aI0
aI0
aI0
aI0
aI0
aI0
aI0
aI0
aI0
aI0
aI0
aI0
aI0
aI0
aI0
aI0
aI0
aa(lp1113
I0
aI0
aI0
aI0
aI0
aI0
aI0
aI0
aI0
aI0
aI0
aI0
aI0
aI0
aI0
aI0
aI0
aI0
aI0
aI0
aI0
aI0
aI0
aI0
aI0
aI0
aI0
aI0
aI0
aI0
aI0
aI0
aI0
aa(lp1114
I0
aI0
aI0
aI0
aI0
aI0
aI0
aI0
aI0
aI0
aI0
aI0
aI0
aI0
aI0
aI0
aI0
aI0
aI0
aI0
aI0
aI0
aI0
aI0
aI0
aI0
aI0
aI0
aI0
aI0
aI0
aI0
aI0
aa(lp1115
I0
aI0
aI0
aI0
aI0
aI0
aI0
aI0
aI0
aI0
aI0
aI0
aI0
aI0
aI0
aI0
aI0
aI0
aI0
aI0
aI0
aI0
aI0
aI0
aI0
aI0
aI0
aI0
aI0
aI0
aI0
aI0
aI0
aa(lp1116
I0
aI0
aI0
aI0
aI0
aI0
aI0
aI0
aI0
aI0
aI0
aI0
aI0
aI0
aI0
aI0
aI0
aI0
aI0
aI0
aI0
aI0
aI0
aI0
aI0
aI0
aI0
aI0
aI0
aI0
aI0
aI0
aI0
aa(lp1117
I0
aI0
aI0
aI0
aI0
aI0
aI0
aI0
aI0
aI0
aI0
aI0
aI0
aI0
aI0
aI0
aI0
aI0
aI0
aI0
aI0
aI0
aI0
aI0
aI0
aI0
aI0
aI0
aI0
aI0
aI0
aI0
aI0
aa(lp1118
I0
aI0
aI0
aI0
aI0
aI0
aI0
aI0
aI0
aI0
aI0
aI0
aI0
aI0
aI0
aI0
aI0
aI0
aI0
aI0
aI0
aI0
aI0
aI0
aI0
aI0
aI0
aI0
aI0
aI0
aI0
aI0
aI0
aa(lp1119
I0
aI0
aI0
aI0
aI0
aI0
aI0
aI0
aI0
aI0
aI0
aI0
aI0
aI0
aI0
aI0
aI0
aI0
aI0
aI0
aI0
aI0
aI0
aI0
aI0
aI0
aI0
aI0
aI0
aI0
aI0
aI0
aI0
aa(lp1120
I0
aI0
aI0
aI0
aI0
aI0
aI0
aI0
aI0
aI0
aI0
aI0
aI0
aI0
aI0
aI0
aI0
aI0
aI0
aI0
aI0
aI0
aI0
aI0
aI0
aI0
aI0
aI0
aI0
aI0
aI0
aI0
aI0
aa(lp1121
I0
aI0
aI0
aI0
aI0
aI0
aI0
aI0
aI0
aI0
aI0
aI0
aI0
aI0
aI0
aI0
aI0
aI0
aI0
aI0
aI0
aI0
aI0
aI0
aI0
aI0
aI0
aI0
aI0
aI0
aI0
aI0
aI0
aa(lp1122
I0
aI0
aI0
aI0
aI0
aI0
aI0
aI0
aI0
aI0
aI0
aI0
aI0
aI0
aI0
aI0
aI0
aI0
aI0
aI0
aI0
aI0
aI0
aI0
aI0
aI0
aI0
aI0
aI0
aI0
aI0
aI0
aI0
aaa.